                                      1 ;--------------------------------------------------------
                                      2 ; File Created by SDCC : free open source ISO C Compiler 
                                      3 ; Version 4.4.1 #14650 (MINGW64)
                                      4 ;--------------------------------------------------------
                                      5 	.module main
                                      6 	.optsdcc -msm83
                                      7 	
                                      8 ;--------------------------------------------------------
                                      9 ; Public variables in this module
                                     10 ;--------------------------------------------------------
                                     11 	.globl _main
                                     12 	.globl _update_hero_sprite
                                     13 	.globl _handle_hero_collision
                                     14 	.globl _update_health_display
                                     15 	.globl _update_enemy_sprite
                                     16 	.globl _update_bullets
                                     17 	.globl _fire_bullets
                                     18 	.globl _initialize_bullets
                                     19 	.globl _interruptLCD
                                     20 	.globl _font_set
                                     21 	.globl _font_load
                                     22 	.globl _font_init
                                     23 	.globl _printf
                                     24 	.globl _set_sprite_data
                                     25 	.globl _set_win_tiles
                                     26 	.globl _set_interrupts
                                     27 	.globl _joypad
                                     28 	.globl _delay
                                     29 	.globl _add_LCD
                                     30 	.globl _display_win
                                     31 	.globl _heroHealth
                                     32 	.globl _heroSpriteIndex
                                     33 	.globl _hero_y
                                     34 	.globl _hero_x
                                     35 	.globl _enemyAnimationCounter
                                     36 	.globl _enemySpeed
                                     37 	.globl _enemySpriteIndex
                                     38 	.globl _enemy_y
                                     39 	.globl _enemy_x
                                     40 	.globl _bullet2
                                     41 	.globl _bullet
                                     42 	.globl _enemy2
                                     43 	.globl _enemy
                                     44 	.globl _hero2
                                     45 	.globl _hero
                                     46 	.globl _windowHeroMetric25
                                     47 	.globl _windowHeroMetric50
                                     48 	.globl _windowHeroMetric75
                                     49 	.globl _windowHeroMetric100
                                     50 	.globl _bullets
                                     51 ;--------------------------------------------------------
                                     52 ; special function registers
                                     53 ;--------------------------------------------------------
                                     54 ;--------------------------------------------------------
                                     55 ; ram data
                                     56 ;--------------------------------------------------------
                                     57 	.area _DATA
    00000000                         58 _bullets::
    00000000                         59 	.ds 70
                                     60 ;--------------------------------------------------------
                                     61 ; ram data
                                     62 ;--------------------------------------------------------
                                     63 	.area _INITIALIZED
    00000000                         64 _windowHeroMetric100::
    00000000                         65 	.ds 5
    00000005                         66 _windowHeroMetric75::
    00000005                         67 	.ds 4
    00000009                         68 _windowHeroMetric50::
    00000009                         69 	.ds 4
    0000000D                         70 _windowHeroMetric25::
    0000000D                         71 	.ds 4
    00000011                         72 _hero::
    00000011                         73 	.ds 64
    00000051                         74 _hero2::
    00000051                         75 	.ds 64
    00000091                         76 _enemy::
    00000091                         77 	.ds 64
    000000D1                         78 _enemy2::
    000000D1                         79 	.ds 64
    00000111                         80 _bullet::
    00000111                         81 	.ds 16
    00000121                         82 _bullet2::
    00000121                         83 	.ds 16
    00000131                         84 _enemy_x::
    00000131                         85 	.ds 1
    00000132                         86 _enemy_y::
    00000132                         87 	.ds 1
    00000133                         88 _enemySpriteIndex::
    00000133                         89 	.ds 1
    00000134                         90 _enemySpeed::
    00000134                         91 	.ds 1
    00000135                         92 _enemyAnimationCounter::
    00000135                         93 	.ds 1
    00000136                         94 _hero_x::
    00000136                         95 	.ds 1
    00000137                         96 _hero_y::
    00000137                         97 	.ds 1
    00000138                         98 _heroSpriteIndex::
    00000138                         99 	.ds 1
    00000139                        100 _heroHealth::
    00000139                        101 	.ds 1
    0000013A                        102 _display_win::
    0000013A                        103 	.ds 1
                                    104 ;--------------------------------------------------------
                                    105 ; absolute external ram data
                                    106 ;--------------------------------------------------------
                                    107 	.area _DABS (ABS)
                                    108 ;--------------------------------------------------------
                                    109 ; global & static initialisations
                                    110 ;--------------------------------------------------------
                                    111 	.area _HOME
                                    112 	.area _GSINIT
                                    113 	.area _GSFINAL
                                    114 	.area _GSINIT
                                    115 ;--------------------------------------------------------
                                    116 ; Home
                                    117 ;--------------------------------------------------------
                                    118 	.area _HOME
                                    119 	.area _HOME
                                    120 ;--------------------------------------------------------
                                    121 ; code
                                    122 ;--------------------------------------------------------
                                    123 	.area _CODE
                                    124 ;main.c:32: void interruptLCD() {
                                    125 ;	---------------------------------
                                    126 ; Function interruptLCD
                                    127 ; ---------------------------------
    00000000                        128 _interruptLCD::
                                    129 ;main.c:33: if (display_win) {
    00000000 FAr3Ar01         [16]  130 	ld	a, (#_display_win)
    00000003 B7               [ 4]  131 	or	a, a
    00000004 C8               [20]  132 	ret	Z
                                    133 ;main.c:34: SHOW_WIN;
    00000005 F0r00            [12]  134 	ldh	a, (_LCDC_REG + 0)
    00000007 F6 20            [ 8]  135 	or	a, #0x20
    00000009 E0r00            [12]  136 	ldh	(_LCDC_REG + 0), a
                                    137 ;main.c:36: }
    0000000B C9               [16]  138 	ret
                                    139 ;main.c:51: void initialize_bullets() {
                                    140 ;	---------------------------------
                                    141 ; Function initialize_bullets
                                    142 ; ---------------------------------
    0000000C                        143 _initialize_bullets::
                                    144 ;main.c:52: for (UINT8 i = 0; i < MAX_BULLETS; i++) {
    0000000C 0E 00            [ 8]  145 	ld	c, #0x00
    0000000E                        146 00103$:
    0000000E 79               [ 4]  147 	ld	a, c
    0000000F D6 0A            [ 8]  148 	sub	a, #0x0a
    00000011 D0               [20]  149 	ret	NC
                                    150 ;main.c:53: bullets[i].x = 0;
    00000012 06 00            [ 8]  151 	ld	b, #0x00
    00000014 69               [ 4]  152 	ld	l, c
    00000015 60               [ 4]  153 	ld	h, b
    00000016 29               [ 8]  154 	add	hl, hl
    00000017 09               [ 8]  155 	add	hl, bc
    00000018 29               [ 8]  156 	add	hl, hl
    00000019 09               [ 8]  157 	add	hl, bc
    0000001A 7D               [ 4]  158 	ld	a, l
    0000001B C6r00            [ 8]  159 	add	a, #<(_bullets)
    0000001D 5F               [ 4]  160 	ld	e, a
    0000001E 7C               [ 4]  161 	ld	a, h
    0000001F CEs00            [ 8]  162 	adc	a, #>(_bullets)
    00000021 57               [ 4]  163 	ld	d, a
    00000022 AF               [ 4]  164 	xor	a, a
    00000023 12               [ 8]  165 	ld	(de), a
                                    166 ;main.c:54: bullets[i].y = 0;
    00000024 6B               [ 4]  167 	ld	l, e
                                    168 ;	spillPairReg hl
                                    169 ;	spillPairReg hl
    00000025 62               [ 4]  170 	ld	h, d
                                    171 ;	spillPairReg hl
                                    172 ;	spillPairReg hl
    00000026 23               [ 8]  173 	inc	hl
    00000027 36 00            [12]  174 	ld	(hl), #0x00
                                    175 ;main.c:55: bullets[i].directionX = 0;
    00000029 6B               [ 4]  176 	ld	l, e
                                    177 ;	spillPairReg hl
                                    178 ;	spillPairReg hl
    0000002A 62               [ 4]  179 	ld	h, d
                                    180 ;	spillPairReg hl
                                    181 ;	spillPairReg hl
    0000002B 23               [ 8]  182 	inc	hl
    0000002C 23               [ 8]  183 	inc	hl
    0000002D 36 00            [12]  184 	ld	(hl), #0x00
                                    185 ;main.c:56: bullets[i].directionY = 0;
    0000002F 6B               [ 4]  186 	ld	l, e
                                    187 ;	spillPairReg hl
                                    188 ;	spillPairReg hl
    00000030 62               [ 4]  189 	ld	h, d
                                    190 ;	spillPairReg hl
                                    191 ;	spillPairReg hl
    00000031 23               [ 8]  192 	inc	hl
    00000032 23               [ 8]  193 	inc	hl
    00000033 23               [ 8]  194 	inc	hl
    00000034 36 00            [12]  195 	ld	(hl), #0x00
                                    196 ;main.c:57: bullets[i].active = 0;
    00000036 21 04 00         [12]  197 	ld	hl, #0x0004
    00000039 19               [ 8]  198 	add	hl, de
    0000003A 36 00            [12]  199 	ld	(hl), #0x00
                                    200 ;main.c:58: bullets[i].animationCounter = 0;
    0000003C 21 05 00         [12]  201 	ld	hl, #0x0005
    0000003F 19               [ 8]  202 	add	hl, de
    00000040 36 00            [12]  203 	ld	(hl), #0x00
                                    204 ;main.c:59: bullets[i].spriteIndex = 0;
    00000042 21 06 00         [12]  205 	ld	hl, #0x0006
    00000045 19               [ 8]  206 	add	hl, de
    00000046 36 00            [12]  207 	ld	(hl), #0x00
                                    208 ;main.c:52: for (UINT8 i = 0; i < MAX_BULLETS; i++) {
    00000048 0C               [ 4]  209 	inc	c
                                    210 ;main.c:61: }
    00000049 18 C3            [12]  211 	jr	00103$
                                    212 ;main.c:64: void fire_bullets() {
                                    213 ;	---------------------------------
                                    214 ; Function fire_bullets
                                    215 ; ---------------------------------
    0000004B                        216 _fire_bullets::
    0000004B E8 F2            [16]  217 	add	sp, #-14
                                    218 ;main.c:65: for (UINT8 i = 0; i < MAX_BULLETS; i += 2) {
    0000004D F8 0D            [12]  219 	ldhl	sp,	#13
    0000004F 36 00            [12]  220 	ld	(hl), #0x00
    00000051                        221 00110$:
    00000051 F8 0D            [12]  222 	ldhl	sp,	#13
    00000053 7E               [ 8]  223 	ld	a, (hl)
    00000054 D6 0A            [ 8]  224 	sub	a, #0x0a
    00000056 D2r58r02         [16]  225 	jp	NC, 00112$
                                    226 ;main.c:66: if (!bullets[i].active && !bullets[i + 1].active) {
    00000059 4E               [ 8]  227 	ld	c, (hl)
    0000005A 06 00            [ 8]  228 	ld	b, #0x00
    0000005C 69               [ 4]  229 	ld	l, c
    0000005D 60               [ 4]  230 	ld	h, b
    0000005E 29               [ 8]  231 	add	hl, hl
    0000005F 09               [ 8]  232 	add	hl, bc
    00000060 29               [ 8]  233 	add	hl, hl
    00000061 09               [ 8]  234 	add	hl, bc
    00000062 01r00r00         [12]  235 	ld	bc,#_bullets
    00000065 09               [ 8]  236 	add	hl,bc
    00000066 33               [ 8]  237 	inc	sp
    00000067 33               [ 8]  238 	inc	sp
    00000068 5D               [ 4]  239 	ld	e, l
    00000069 54               [ 4]  240 	ld	d, h
    0000006A D5               [16]  241 	push	de
    0000006B 21 04 00         [12]  242 	ld	hl, #0x0004
    0000006E 19               [ 8]  243 	add	hl, de
    0000006F E5               [16]  244 	push	hl
    00000070 7D               [ 4]  245 	ld	a, l
    00000071 F8 0D            [12]  246 	ldhl	sp,	#13
    00000073 77               [ 8]  247 	ld	(hl), a
    00000074 E1               [12]  248 	pop	hl
    00000075 7C               [ 4]  249 	ld	a, h
    00000076 F8 0C            [12]  250 	ldhl	sp,	#12
    00000078 32               [ 8]  251 	ld	(hl-), a
    00000079 2A               [ 8]  252 	ld	a, (hl+)
    0000007A 5F               [ 4]  253 	ld	e, a
    0000007B 56               [ 8]  254 	ld	d, (hl)
    0000007C 1A               [ 8]  255 	ld	a, (de)
    0000007D B7               [ 4]  256 	or	a, a
    0000007E C2r51r02         [16]  257 	jp	NZ, 00111$
    00000081 23               [ 8]  258 	inc	hl
    00000082 4E               [ 8]  259 	ld	c, (hl)
    00000083 0C               [ 4]  260 	inc	c
    00000084 79               [ 4]  261 	ld	a, c
    00000085 07               [ 4]  262 	rlca
    00000086 9F               [ 4]  263 	sbc	a, a
    00000087 47               [ 4]  264 	ld	b, a
    00000088 69               [ 4]  265 	ld	l, c
    00000089 60               [ 4]  266 	ld	h, b
    0000008A 29               [ 8]  267 	add	hl, hl
    0000008B 09               [ 8]  268 	add	hl, bc
    0000008C 29               [ 8]  269 	add	hl, hl
    0000008D 09               [ 8]  270 	add	hl, bc
    0000008E 01r00r00         [12]  271 	ld	bc,#_bullets
    00000091 09               [ 8]  272 	add	hl,bc
    00000092 E5               [16]  273 	push	hl
    00000093 7D               [ 4]  274 	ld	a, l
    00000094 F8 04            [12]  275 	ldhl	sp,	#4
    00000096 77               [ 8]  276 	ld	(hl), a
    00000097 E1               [12]  277 	pop	hl
    00000098 7C               [ 4]  278 	ld	a, h
    00000099 F8 03            [12]  279 	ldhl	sp,	#3
    0000009B 32               [ 8]  280 	ld	(hl-), a
    0000009C 2A               [ 8]  281 	ld	a, (hl+)
    0000009D 5F               [ 4]  282 	ld	e, a
    0000009E 56               [ 8]  283 	ld	d, (hl)
    0000009F 21 04 00         [12]  284 	ld	hl, #0x0004
    000000A2 19               [ 8]  285 	add	hl, de
    000000A3 4D               [ 4]  286 	ld	c, l
    000000A4 44               [ 4]  287 	ld	b, h
    000000A5 0A               [ 8]  288 	ld	a, (bc)
    000000A6 B7               [ 4]  289 	or	a, a
    000000A7 C2r51r02         [16]  290 	jp	NZ, 00111$
                                    291 ;main.c:67: bullets[i].x = hero_x;
    000000AA D1               [12]  292 	pop	de
    000000AB D5               [16]  293 	push	de
    000000AC FAr36r01         [16]  294 	ld	a, (#_hero_x)
    000000AF 12               [ 8]  295 	ld	(de), a
                                    296 ;main.c:68: bullets[i].y = hero_y;
    000000B0 D1               [12]  297 	pop	de
    000000B1 D5               [16]  298 	push	de
    000000B2 6B               [ 4]  299 	ld	l, e
    000000B3 62               [ 4]  300 	ld	h, d
    000000B4 23               [ 8]  301 	inc	hl
    000000B5 E5               [16]  302 	push	hl
    000000B6 7D               [ 4]  303 	ld	a, l
    000000B7 F8 06            [12]  304 	ldhl	sp,	#6
    000000B9 77               [ 8]  305 	ld	(hl), a
    000000BA E1               [12]  306 	pop	hl
    000000BB 7C               [ 4]  307 	ld	a, h
    000000BC F8 05            [12]  308 	ldhl	sp,	#5
    000000BE 32               [ 8]  309 	ld	(hl-), a
    000000BF 2A               [ 8]  310 	ld	a, (hl+)
    000000C0 5F               [ 4]  311 	ld	e, a
    000000C1 56               [ 8]  312 	ld	d, (hl)
    000000C2 FAr37r01         [16]  313 	ld	a, (#_hero_y)
    000000C5 12               [ 8]  314 	ld	(de), a
                                    315 ;main.c:69: bullets[i].directionX = -1;
    000000C6 E1               [12]  316 	pop	hl
    000000C7 E5               [16]  317 	push	hl
    000000C8 23               [ 8]  318 	inc	hl
    000000C9 23               [ 8]  319 	inc	hl
    000000CA 36 FF            [12]  320 	ld	(hl), #0xff
                                    321 ;main.c:70: bullets[i].directionY = -1;
    000000CC E1               [12]  322 	pop	hl
    000000CD E5               [16]  323 	push	hl
    000000CE 23               [ 8]  324 	inc	hl
    000000CF 23               [ 8]  325 	inc	hl
    000000D0 23               [ 8]  326 	inc	hl
    000000D1 36 FF            [12]  327 	ld	(hl), #0xff
                                    328 ;main.c:71: bullets[i].active = 1;
    000000D3 F8 0B            [12]  329 	ldhl	sp,	#11
    000000D5 2A               [ 8]  330 	ld	a,	(hl+)
    000000D6 66               [ 8]  331 	ld	h, (hl)
    000000D7 6F               [ 4]  332 	ld	l, a
    000000D8 36 01            [12]  333 	ld	(hl), #0x01
                                    334 ;main.c:73: bullets[i + 1].x = hero_x;
    000000DA F8 02            [12]  335 	ldhl	sp,#2
    000000DC 2A               [ 8]  336 	ld	a, (hl+)
    000000DD 5F               [ 4]  337 	ld	e, a
    000000DE 56               [ 8]  338 	ld	d, (hl)
    000000DF FAr36r01         [16]  339 	ld	a, (#_hero_x)
    000000E2 12               [ 8]  340 	ld	(de), a
                                    341 ;main.c:74: bullets[i + 1].y = hero_y;
    000000E3 F8 02            [12]  342 	ldhl	sp,#2
    000000E5 2A               [ 8]  343 	ld	a, (hl+)
    000000E6 5F               [ 4]  344 	ld	e, a
    000000E7 56               [ 8]  345 	ld	d, (hl)
    000000E8 6B               [ 4]  346 	ld	l, e
    000000E9 62               [ 4]  347 	ld	h, d
    000000EA 23               [ 8]  348 	inc	hl
    000000EB E5               [16]  349 	push	hl
    000000EC 7D               [ 4]  350 	ld	a, l
    000000ED F8 08            [12]  351 	ldhl	sp,	#8
    000000EF 77               [ 8]  352 	ld	(hl), a
    000000F0 E1               [12]  353 	pop	hl
    000000F1 7C               [ 4]  354 	ld	a, h
    000000F2 F8 07            [12]  355 	ldhl	sp,	#7
    000000F4 32               [ 8]  356 	ld	(hl-), a
    000000F5 2A               [ 8]  357 	ld	a, (hl+)
    000000F6 5F               [ 4]  358 	ld	e, a
    000000F7 56               [ 8]  359 	ld	d, (hl)
    000000F8 FAr37r01         [16]  360 	ld	a, (#_hero_y)
    000000FB 12               [ 8]  361 	ld	(de), a
                                    362 ;main.c:75: bullets[i + 1].directionX = 1;
    000000FC F8 02            [12]  363 	ldhl	sp,	#2
    000000FE 2A               [ 8]  364 	ld	a, (hl+)
    000000FF 66               [ 8]  365 	ld	h, (hl)
                                    366 ;	spillPairReg hl
                                    367 ;	spillPairReg hl
    00000100 6F               [ 4]  368 	ld	l, a
                                    369 ;	spillPairReg hl
                                    370 ;	spillPairReg hl
    00000101 23               [ 8]  371 	inc	hl
    00000102 23               [ 8]  372 	inc	hl
    00000103 36 01            [12]  373 	ld	(hl), #0x01
                                    374 ;main.c:76: bullets[i + 1].directionY = 1;
    00000105 F8 02            [12]  375 	ldhl	sp,	#2
    00000107 2A               [ 8]  376 	ld	a, (hl+)
    00000108 66               [ 8]  377 	ld	h, (hl)
                                    378 ;	spillPairReg hl
                                    379 ;	spillPairReg hl
    00000109 6F               [ 4]  380 	ld	l, a
                                    381 ;	spillPairReg hl
                                    382 ;	spillPairReg hl
    0000010A 23               [ 8]  383 	inc	hl
    0000010B 23               [ 8]  384 	inc	hl
    0000010C 23               [ 8]  385 	inc	hl
    0000010D 36 01            [12]  386 	ld	(hl), #0x01
                                    387 ;main.c:77: bullets[i + 1].active = 1;
    0000010F 3E 01            [ 8]  388 	ld	a, #0x01
    00000111 02               [ 8]  389 	ld	(bc), a
                                    390 ;main.c:79: set_sprite_tile(8 + i, 16);
    00000112 F8 0D            [12]  391 	ldhl	sp,	#13
    00000114 7E               [ 8]  392 	ld	a, (hl)
    00000115 C6 08            [ 8]  393 	add	a, #0x08
    00000117 F8 08            [12]  394 	ldhl	sp,	#8
    00000119 77               [ 8]  395 	ld	(hl), a
    0000011A 4E               [ 8]  396 	ld	c, (hl)
                                    397 ;c:\gbdk\include\gb\gb.h:1875: shadow_OAM[nb].tile=tile;
    0000011B AF               [ 4]  398 	xor	a, a
    0000011C CB 21            [ 8]  399 	sla	c
    0000011E 8F               [ 4]  400 	adc	a, a
    0000011F CB 21            [ 8]  401 	sla	c
    00000121 8F               [ 4]  402 	adc	a, a
    00000122 F8 0B            [12]  403 	ldhl	sp,	#11
    00000124 71               [ 8]  404 	ld	(hl), c
    00000125 23               [ 8]  405 	inc	hl
    00000126 77               [ 8]  406 	ld	(hl), a
    00000127 11r00r00         [12]  407 	ld	de, #_shadow_OAM
    0000012A 3A               [ 8]  408 	ld	a, (hl-)
    0000012B 6E               [ 8]  409 	ld	l, (hl)
    0000012C 67               [ 4]  410 	ld	h, a
    0000012D 19               [ 8]  411 	add	hl, de
    0000012E E5               [16]  412 	push	hl
    0000012F 7D               [ 4]  413 	ld	a, l
    00000130 F8 0B            [12]  414 	ldhl	sp,	#11
    00000132 77               [ 8]  415 	ld	(hl), a
    00000133 E1               [12]  416 	pop	hl
    00000134 7C               [ 4]  417 	ld	a, h
    00000135 F8 0A            [12]  418 	ldhl	sp,	#10
    00000137 32               [ 8]  419 	ld	(hl-), a
    00000138 2A               [ 8]  420 	ld	a, (hl+)
    00000139 5F               [ 4]  421 	ld	e, a
    0000013A 56               [ 8]  422 	ld	d, (hl)
    0000013B 21 02 00         [12]  423 	ld	hl, #0x0002
    0000013E 19               [ 8]  424 	add	hl, de
    0000013F E5               [16]  425 	push	hl
    00000140 7D               [ 4]  426 	ld	a, l
    00000141 F8 0D            [12]  427 	ldhl	sp,	#13
    00000143 77               [ 8]  428 	ld	(hl), a
    00000144 E1               [12]  429 	pop	hl
    00000145 7C               [ 4]  430 	ld	a, h
    00000146 F8 0C            [12]  431 	ldhl	sp,	#12
    00000148 32               [ 8]  432 	ld	(hl-), a
    00000149 2A               [ 8]  433 	ld	a,	(hl+)
    0000014A 66               [ 8]  434 	ld	h, (hl)
    0000014B 6F               [ 4]  435 	ld	l, a
    0000014C 36 10            [12]  436 	ld	(hl), #0x10
                                    437 ;main.c:80: set_sprite_tile(8 + i + 1, 17);
    0000014E F8 0D            [12]  438 	ldhl	sp,	#13
    00000150 7E               [ 8]  439 	ld	a, (hl)
    00000151 C6 09            [ 8]  440 	add	a, #0x09
    00000153 F8 09            [12]  441 	ldhl	sp,	#9
    00000155 77               [ 8]  442 	ld	(hl), a
    00000156 4E               [ 8]  443 	ld	c, (hl)
                                    444 ;c:\gbdk\include\gb\gb.h:1875: shadow_OAM[nb].tile=tile;
    00000157 F8 0C            [12]  445 	ldhl	sp,	#12
    00000159 79               [ 4]  446 	ld	a, c
    0000015A 22               [ 8]  447 	ld	(hl+), a
    0000015B 36 00            [12]  448 	ld	(hl), #0x00
    0000015D 3E 02            [ 8]  449 	ld	a, #0x02
    0000015F                        450 00143$:
    0000015F F8 0C            [12]  451 	ldhl	sp,	#12
    00000161 CB 26            [16]  452 	sla	(hl)
    00000163 23               [ 8]  453 	inc	hl
    00000164 CB 16            [16]  454 	rl	(hl)
    00000166 3D               [ 4]  455 	dec	a
    00000167 20 F6            [12]  456 	jr	NZ, 00143$
    00000169 2B               [ 8]  457 	dec	hl
    0000016A 2A               [ 8]  458 	ld	a, (hl+)
    0000016B 5F               [ 4]  459 	ld	e, a
    0000016C 56               [ 8]  460 	ld	d, (hl)
    0000016D 21r00r00         [12]  461 	ld	hl, #_shadow_OAM
    00000170 19               [ 8]  462 	add	hl, de
    00000171 E5               [16]  463 	push	hl
    00000172 7D               [ 4]  464 	ld	a, l
    00000173 F8 0C            [12]  465 	ldhl	sp,	#12
    00000175 77               [ 8]  466 	ld	(hl), a
    00000176 E1               [12]  467 	pop	hl
    00000177 7C               [ 4]  468 	ld	a, h
    00000178 F8 0B            [12]  469 	ldhl	sp,	#11
    0000017A 32               [ 8]  470 	ld	(hl-), a
    0000017B 2A               [ 8]  471 	ld	a, (hl+)
    0000017C 5F               [ 4]  472 	ld	e, a
    0000017D 56               [ 8]  473 	ld	d, (hl)
    0000017E 21 02 00         [12]  474 	ld	hl, #0x0002
    00000181 19               [ 8]  475 	add	hl, de
    00000182 E5               [16]  476 	push	hl
    00000183 7D               [ 4]  477 	ld	a, l
    00000184 F8 0E            [12]  478 	ldhl	sp,	#14
    00000186 77               [ 8]  479 	ld	(hl), a
    00000187 E1               [12]  480 	pop	hl
    00000188 7C               [ 4]  481 	ld	a, h
    00000189 F8 0D            [12]  482 	ldhl	sp,	#13
    0000018B 32               [ 8]  483 	ld	(hl-), a
    0000018C 2A               [ 8]  484 	ld	a,	(hl+)
    0000018D 66               [ 8]  485 	ld	h, (hl)
    0000018E 6F               [ 4]  486 	ld	l, a
    0000018F 36 11            [12]  487 	ld	(hl), #0x11
                                    488 ;main.c:82: move_sprite(8 + i, bullets[i].x, bullets[i].y);
    00000191 F8 04            [12]  489 	ldhl	sp,#4
    00000193 2A               [ 8]  490 	ld	a, (hl+)
    00000194 5F               [ 4]  491 	ld	e, a
    00000195 56               [ 8]  492 	ld	d, (hl)
    00000196 1A               [ 8]  493 	ld	a, (de)
    00000197 F8 0D            [12]  494 	ldhl	sp,	#13
    00000199 32               [ 8]  495 	ld	(hl-), a
    0000019A D1               [12]  496 	pop	de
    0000019B D5               [16]  497 	push	de
    0000019C 1A               [ 8]  498 	ld	a, (de)
    0000019D 77               [ 8]  499 	ld	(hl), a
    0000019E F8 08            [12]  500 	ldhl	sp,	#8
    000001A0 7E               [ 8]  501 	ld	a, (hl)
    000001A1 F8 0B            [12]  502 	ldhl	sp,	#11
    000001A3 77               [ 8]  503 	ld	(hl), a
                                    504 ;c:\gbdk\include\gb\gb.h:1961: OAM_item_t * itm = &shadow_OAM[nb];
    000001A4 3A               [ 8]  505 	ld	a, (hl-)
    000001A5 22               [ 8]  506 	ld	(hl+), a
    000001A6 36 00            [12]  507 	ld	(hl), #0x00
    000001A8 3E 02            [ 8]  508 	ld	a, #0x02
    000001AA                        509 00144$:
    000001AA F8 0A            [12]  510 	ldhl	sp,	#10
    000001AC CB 26            [16]  511 	sla	(hl)
    000001AE 23               [ 8]  512 	inc	hl
    000001AF CB 16            [16]  513 	rl	(hl)
    000001B1 3D               [ 4]  514 	dec	a
    000001B2 20 F6            [12]  515 	jr	NZ, 00144$
    000001B4 2B               [ 8]  516 	dec	hl
    000001B5 2A               [ 8]  517 	ld	a, (hl+)
    000001B6 5F               [ 4]  518 	ld	e, a
    000001B7 56               [ 8]  519 	ld	d, (hl)
    000001B8 21r00r00         [12]  520 	ld	hl, #_shadow_OAM
    000001BB 19               [ 8]  521 	add	hl, de
    000001BC E5               [16]  522 	push	hl
    000001BD 7D               [ 4]  523 	ld	a, l
    000001BE F8 06            [12]  524 	ldhl	sp,	#6
    000001C0 77               [ 8]  525 	ld	(hl), a
    000001C1 E1               [12]  526 	pop	hl
    000001C2 7C               [ 4]  527 	ld	a, h
    000001C3 F8 05            [12]  528 	ldhl	sp,	#5
    000001C5 32               [ 8]  529 	ld	(hl-), a
    000001C6 7E               [ 8]  530 	ld	a, (hl)
    000001C7 F8 0A            [12]  531 	ldhl	sp,	#10
    000001C9 77               [ 8]  532 	ld	(hl), a
    000001CA F8 05            [12]  533 	ldhl	sp,	#5
    000001CC 7E               [ 8]  534 	ld	a, (hl)
    000001CD F8 0B            [12]  535 	ldhl	sp,	#11
                                    536 ;c:\gbdk\include\gb\gb.h:1962: itm->y=y, itm->x=x;
    000001CF 32               [ 8]  537 	ld	(hl-), a
    000001D0 2A               [ 8]  538 	ld	a, (hl+)
    000001D1 5F               [ 4]  539 	ld	e, a
    000001D2 2A               [ 8]  540 	ld	a, (hl+)
    000001D3 23               [ 8]  541 	inc	hl
    000001D4 57               [ 4]  542 	ld	d, a
    000001D5 3A               [ 8]  543 	ld	a, (hl-)
    000001D6 2B               [ 8]  544 	dec	hl
    000001D7 2B               [ 8]  545 	dec	hl
    000001D8 12               [ 8]  546 	ld	(de), a
    000001D9 2A               [ 8]  547 	ld	a, (hl+)
    000001DA 5F               [ 4]  548 	ld	e, a
    000001DB 56               [ 8]  549 	ld	d, (hl)
    000001DC 6B               [ 4]  550 	ld	l, e
    000001DD 62               [ 4]  551 	ld	h, d
    000001DE 23               [ 8]  552 	inc	hl
    000001DF E5               [16]  553 	push	hl
    000001E0 7D               [ 4]  554 	ld	a, l
    000001E1 F8 06            [12]  555 	ldhl	sp,	#6
    000001E3 77               [ 8]  556 	ld	(hl), a
    000001E4 E1               [12]  557 	pop	hl
    000001E5 7C               [ 4]  558 	ld	a, h
    000001E6 F8 05            [12]  559 	ldhl	sp,	#5
    000001E8 32               [ 8]  560 	ld	(hl-), a
    000001E9 2A               [ 8]  561 	ld	a, (hl+)
    000001EA 5F               [ 4]  562 	ld	e, a
    000001EB 56               [ 8]  563 	ld	d, (hl)
    000001EC F8 0C            [12]  564 	ldhl	sp,	#12
    000001EE 7E               [ 8]  565 	ld	a, (hl)
    000001EF 12               [ 8]  566 	ld	(de), a
                                    567 ;main.c:83: move_sprite(8 + i + 1, bullets[i + 1].x, bullets[i + 1].y);
    000001F0 F8 06            [12]  568 	ldhl	sp,#6
    000001F2 2A               [ 8]  569 	ld	a, (hl+)
    000001F3 5F               [ 4]  570 	ld	e, a
    000001F4 56               [ 8]  571 	ld	d, (hl)
    000001F5 1A               [ 8]  572 	ld	a, (de)
    000001F6 F8 0D            [12]  573 	ldhl	sp,	#13
    000001F8 77               [ 8]  574 	ld	(hl), a
    000001F9 F8 02            [12]  575 	ldhl	sp,#2
    000001FB 2A               [ 8]  576 	ld	a, (hl+)
    000001FC 5F               [ 4]  577 	ld	e, a
    000001FD 56               [ 8]  578 	ld	d, (hl)
    000001FE 1A               [ 8]  579 	ld	a, (de)
    000001FF F8 0C            [12]  580 	ldhl	sp,	#12
    00000201 77               [ 8]  581 	ld	(hl), a
    00000202 F8 09            [12]  582 	ldhl	sp,	#9
    00000204 2A               [ 8]  583 	ld	a, (hl+)
    00000205 23               [ 8]  584 	inc	hl
    00000206 77               [ 8]  585 	ld	(hl), a
                                    586 ;c:\gbdk\include\gb\gb.h:1961: OAM_item_t * itm = &shadow_OAM[nb];
    00000207 3A               [ 8]  587 	ld	a, (hl-)
    00000208 22               [ 8]  588 	ld	(hl+), a
    00000209 36 00            [12]  589 	ld	(hl), #0x00
    0000020B 3E 02            [ 8]  590 	ld	a, #0x02
    0000020D                        591 00145$:
    0000020D F8 0A            [12]  592 	ldhl	sp,	#10
    0000020F CB 26            [16]  593 	sla	(hl)
    00000211 23               [ 8]  594 	inc	hl
    00000212 CB 16            [16]  595 	rl	(hl)
    00000214 3D               [ 4]  596 	dec	a
    00000215 20 F6            [12]  597 	jr	NZ, 00145$
    00000217 2B               [ 8]  598 	dec	hl
    00000218 2A               [ 8]  599 	ld	a, (hl+)
    00000219 5F               [ 4]  600 	ld	e, a
    0000021A 56               [ 8]  601 	ld	d, (hl)
    0000021B 21r00r00         [12]  602 	ld	hl, #_shadow_OAM
    0000021E 19               [ 8]  603 	add	hl, de
    0000021F E5               [16]  604 	push	hl
    00000220 7D               [ 4]  605 	ld	a, l
    00000221 F8 0A            [12]  606 	ldhl	sp,	#10
    00000223 77               [ 8]  607 	ld	(hl), a
    00000224 E1               [12]  608 	pop	hl
    00000225 7C               [ 4]  609 	ld	a, h
    00000226 F8 09            [12]  610 	ldhl	sp,	#9
    00000228 32               [ 8]  611 	ld	(hl-), a
    00000229 2A               [ 8]  612 	ld	a, (hl+)
    0000022A 23               [ 8]  613 	inc	hl
    0000022B 32               [ 8]  614 	ld	(hl-), a
    0000022C 2A               [ 8]  615 	ld	a, (hl+)
    0000022D 23               [ 8]  616 	inc	hl
                                    617 ;c:\gbdk\include\gb\gb.h:1962: itm->y=y, itm->x=x;
    0000022E 32               [ 8]  618 	ld	(hl-), a
    0000022F 2A               [ 8]  619 	ld	a, (hl+)
    00000230 5F               [ 4]  620 	ld	e, a
    00000231 2A               [ 8]  621 	ld	a, (hl+)
    00000232 23               [ 8]  622 	inc	hl
    00000233 57               [ 4]  623 	ld	d, a
    00000234 3A               [ 8]  624 	ld	a, (hl-)
    00000235 2B               [ 8]  625 	dec	hl
    00000236 2B               [ 8]  626 	dec	hl
    00000237 12               [ 8]  627 	ld	(de), a
    00000238 2A               [ 8]  628 	ld	a, (hl+)
    00000239 5F               [ 4]  629 	ld	e, a
    0000023A 56               [ 8]  630 	ld	d, (hl)
    0000023B 6B               [ 4]  631 	ld	l, e
    0000023C 62               [ 4]  632 	ld	h, d
    0000023D 23               [ 8]  633 	inc	hl
    0000023E E5               [16]  634 	push	hl
    0000023F 7D               [ 4]  635 	ld	a, l
    00000240 F8 0A            [12]  636 	ldhl	sp,	#10
    00000242 77               [ 8]  637 	ld	(hl), a
    00000243 E1               [12]  638 	pop	hl
    00000244 7C               [ 4]  639 	ld	a, h
    00000245 F8 09            [12]  640 	ldhl	sp,	#9
    00000247 32               [ 8]  641 	ld	(hl-), a
    00000248 2A               [ 8]  642 	ld	a, (hl+)
    00000249 5F               [ 4]  643 	ld	e, a
    0000024A 56               [ 8]  644 	ld	d, (hl)
    0000024B F8 0C            [12]  645 	ldhl	sp,	#12
    0000024D 7E               [ 8]  646 	ld	a, (hl)
    0000024E 12               [ 8]  647 	ld	(de), a
                                    648 ;main.c:84: return;
    0000024F 18 07            [12]  649 	jr	00112$
    00000251                        650 00111$:
                                    651 ;main.c:65: for (UINT8 i = 0; i < MAX_BULLETS; i += 2) {
    00000251 F8 0D            [12]  652 	ldhl	sp,	#13
    00000253 34               [12]  653 	inc	(hl)
    00000254 34               [12]  654 	inc	(hl)
    00000255 C3r51r00         [16]  655 	jp	00110$
    00000258                        656 00112$:
                                    657 ;main.c:87: }
    00000258 E8 0E            [16]  658 	add	sp, #14
    0000025A C9               [16]  659 	ret
                                    660 ;main.c:90: void update_bullets() {
                                    661 ;	---------------------------------
                                    662 ; Function update_bullets
                                    663 ; ---------------------------------
    0000025B                        664 _update_bullets::
    0000025B E8 F7            [16]  665 	add	sp, #-9
                                    666 ;main.c:91: for (UINT8 i = 0; i < MAX_BULLETS; i++) {
    0000025D F8 08            [12]  667 	ldhl	sp,	#8
    0000025F 36 00            [12]  668 	ld	(hl), #0x00
    00000261                        669 00119$:
    00000261 F8 08            [12]  670 	ldhl	sp,	#8
    00000263 7E               [ 8]  671 	ld	a, (hl)
    00000264 D6 0A            [ 8]  672 	sub	a, #0x0a
    00000266 D2r50r04         [16]  673 	jp	NC, 00121$
                                    674 ;main.c:92: if (bullets[i].active) {
    00000269 4E               [ 8]  675 	ld	c, (hl)
    0000026A 06 00            [ 8]  676 	ld	b, #0x00
    0000026C 69               [ 4]  677 	ld	l, c
    0000026D 60               [ 4]  678 	ld	h, b
    0000026E 29               [ 8]  679 	add	hl, hl
    0000026F 09               [ 8]  680 	add	hl, bc
    00000270 29               [ 8]  681 	add	hl, hl
    00000271 09               [ 8]  682 	add	hl, bc
    00000272 01r00r00         [12]  683 	ld	bc,#_bullets
    00000275 09               [ 8]  684 	add	hl,bc
    00000276 E5               [16]  685 	push	hl
    00000277 7D               [ 4]  686 	ld	a, l
    00000278 F8 06            [12]  687 	ldhl	sp,	#6
    0000027A 77               [ 8]  688 	ld	(hl), a
    0000027B E1               [12]  689 	pop	hl
    0000027C 7C               [ 4]  690 	ld	a, h
    0000027D F8 05            [12]  691 	ldhl	sp,	#5
    0000027F 32               [ 8]  692 	ld	(hl-), a
    00000280 2A               [ 8]  693 	ld	a, (hl+)
    00000281 5F               [ 4]  694 	ld	e, a
    00000282 56               [ 8]  695 	ld	d, (hl)
    00000283 21 04 00         [12]  696 	ld	hl, #0x0004
    00000286 19               [ 8]  697 	add	hl, de
    00000287 4D               [ 4]  698 	ld	c, l
    00000288 44               [ 4]  699 	ld	b, h
    00000289 0A               [ 8]  700 	ld	a, (bc)
    0000028A B7               [ 4]  701 	or	a, a
    0000028B CAr4Ar04         [16]  702 	jp	Z, 00120$
                                    703 ;main.c:93: bullets[i].x += bullets[i].directionX * 4;
    0000028E F8 04            [12]  704 	ldhl	sp,#4
    00000290 2A               [ 8]  705 	ld	a, (hl+)
    00000291 5F               [ 4]  706 	ld	e, a
    00000292 3A               [ 8]  707 	ld	a, (hl-)
    00000293 57               [ 4]  708 	ld	d, a
    00000294 1A               [ 8]  709 	ld	a, (de)
    00000295 4F               [ 4]  710 	ld	c, a
    00000296 2A               [ 8]  711 	ld	a, (hl+)
    00000297 5F               [ 4]  712 	ld	e, a
    00000298 56               [ 8]  713 	ld	d, (hl)
    00000299 13               [ 8]  714 	inc	de
    0000029A 13               [ 8]  715 	inc	de
    0000029B 1A               [ 8]  716 	ld	a, (de)
    0000029C 87               [ 4]  717 	add	a, a
    0000029D 87               [ 4]  718 	add	a, a
    0000029E 81               [ 4]  719 	add	a, c
    0000029F 4F               [ 4]  720 	ld	c, a
    000002A0 3A               [ 8]  721 	ld	a, (hl-)
    000002A1 6E               [ 8]  722 	ld	l, (hl)
    000002A2 67               [ 4]  723 	ld	h, a
    000002A3 71               [ 8]  724 	ld	(hl), c
                                    725 ;main.c:94: bullets[i].y += bullets[i].directionY * 4;
    000002A4 F8 04            [12]  726 	ldhl	sp,	#4
    000002A6 2A               [ 8]  727 	ld	a, (hl+)
    000002A7 4F               [ 4]  728 	ld	c, a
    000002A8 46               [ 8]  729 	ld	b, (hl)
    000002A9 03               [ 8]  730 	inc	bc
    000002AA 0A               [ 8]  731 	ld	a, (bc)
    000002AB 5F               [ 4]  732 	ld	e, a
                                    733 ;	spillPairReg hl
                                    734 ;	spillPairReg hl
    000002AC 3A               [ 8]  735 	ld	a, (hl-)
    000002AD 6E               [ 8]  736 	ld	l, (hl)
    000002AE 67               [ 4]  737 	ld	h, a
                                    738 ;	spillPairReg hl
                                    739 ;	spillPairReg hl
    000002AF 23               [ 8]  740 	inc	hl
    000002B0 23               [ 8]  741 	inc	hl
    000002B1 23               [ 8]  742 	inc	hl
    000002B2 7E               [ 8]  743 	ld	a, (hl)
    000002B3 87               [ 4]  744 	add	a, a
    000002B4 87               [ 4]  745 	add	a, a
    000002B5 83               [ 4]  746 	add	a, e
    000002B6 02               [ 8]  747 	ld	(bc), a
                                    748 ;main.c:95: move_sprite(8 + i, bullets[i].x, bullets[i].y);
    000002B7 0A               [ 8]  749 	ld	a, (bc)
    000002B8 4F               [ 4]  750 	ld	c, a
    000002B9 F8 04            [12]  751 	ldhl	sp,#4
    000002BB 2A               [ 8]  752 	ld	a, (hl+)
    000002BC 5F               [ 4]  753 	ld	e, a
    000002BD 2A               [ 8]  754 	ld	a, (hl+)
    000002BE 23               [ 8]  755 	inc	hl
    000002BF 57               [ 4]  756 	ld	d, a
    000002C0 1A               [ 8]  757 	ld	a, (de)
    000002C1 22               [ 8]  758 	ld	(hl+), a
    000002C2 7E               [ 8]  759 	ld	a, (hl)
    000002C3 C6 08            [ 8]  760 	add	a, #0x08
    000002C5 F8 00            [12]  761 	ldhl	sp,	#0
    000002C7 77               [ 8]  762 	ld	(hl), a
                                    763 ;c:\gbdk\include\gb\gb.h:1961: OAM_item_t * itm = &shadow_OAM[nb];
    000002C8 6E               [ 8]  764 	ld	l, (hl)
                                    765 ;	spillPairReg hl
                                    766 ;	spillPairReg hl
    000002C9 AF               [ 4]  767 	xor	a, a
    000002CA 67               [ 4]  768 	ld	h, a
    000002CB 29               [ 8]  769 	add	hl, hl
    000002CC 29               [ 8]  770 	add	hl, hl
    000002CD 11r00r00         [12]  771 	ld	de, #_shadow_OAM
    000002D0 19               [ 8]  772 	add	hl, de
                                    773 ;c:\gbdk\include\gb\gb.h:1962: itm->y=y, itm->x=x;
    000002D1 79               [ 4]  774 	ld	a, c
    000002D2 22               [ 8]  775 	ld	(hl+), a
    000002D3 4D               [ 4]  776 	ld	c, l
    000002D4 44               [ 4]  777 	ld	b, h
    000002D5 F8 07            [12]  778 	ldhl	sp,	#7
                                    779 ;main.c:97: bullets[i].animationCounter++;
    000002D7 3A               [ 8]  780 	ld	a, (hl-)
    000002D8 2B               [ 8]  781 	dec	hl
    000002D9 2B               [ 8]  782 	dec	hl
    000002DA 02               [ 8]  783 	ld	(bc), a
    000002DB 2A               [ 8]  784 	ld	a, (hl+)
    000002DC 5F               [ 4]  785 	ld	e, a
    000002DD 56               [ 8]  786 	ld	d, (hl)
    000002DE 21 05 00         [12]  787 	ld	hl, #0x0005
    000002E1 19               [ 8]  788 	add	hl, de
    000002E2 4D               [ 4]  789 	ld	c, l
    000002E3 44               [ 4]  790 	ld	b, h
    000002E4 0A               [ 8]  791 	ld	a, (bc)
    000002E5 3C               [ 4]  792 	inc	a
    000002E6 5F               [ 4]  793 	ld	e, a
    000002E7 02               [ 8]  794 	ld	(bc), a
                                    795 ;main.c:98: if (bullets[i].animationCounter > 1) {
    000002E8 3E 01            [ 8]  796 	ld	a, #0x01
    000002EA 93               [ 4]  797 	sub	a, e
    000002EB 30 5A            [12]  798 	jr	NC, 00102$
                                    799 ;main.c:99: bullets[i].spriteIndex = bullets[i].spriteIndex == 0 ? 1 : 0;
    000002ED F8 04            [12]  800 	ldhl	sp,#4
    000002EF 2A               [ 8]  801 	ld	a, (hl+)
    000002F0 5F               [ 4]  802 	ld	e, a
    000002F1 56               [ 8]  803 	ld	d, (hl)
    000002F2 21 06 00         [12]  804 	ld	hl, #0x0006
    000002F5 19               [ 8]  805 	add	hl, de
    000002F6 E5               [16]  806 	push	hl
    000002F7 7D               [ 4]  807 	ld	a, l
    000002F8 F8 08            [12]  808 	ldhl	sp,	#8
    000002FA 77               [ 8]  809 	ld	(hl), a
    000002FB E1               [12]  810 	pop	hl
    000002FC 7C               [ 4]  811 	ld	a, h
    000002FD F8 07            [12]  812 	ldhl	sp,	#7
    000002FF 32               [ 8]  813 	ld	(hl-), a
    00000300 2A               [ 8]  814 	ld	a, (hl+)
    00000301 5F               [ 4]  815 	ld	e, a
    00000302 56               [ 8]  816 	ld	d, (hl)
    00000303 1A               [ 8]  817 	ld	a, (de)
    00000304 B7               [ 4]  818 	or	a, a
    00000305 0E 01            [ 8]  819 	ld	c, #0x01
    00000307 28 02            [12]  820 	jr	Z, 00124$
    00000309 0E 00            [ 8]  821 	ld	c, #0x00
    0000030B                        822 00124$:
    0000030B F8 06            [12]  823 	ldhl	sp,	#6
    0000030D 2A               [ 8]  824 	ld	a,	(hl+)
    0000030E 66               [ 8]  825 	ld	h, (hl)
    0000030F 6F               [ 4]  826 	ld	l, a
    00000310 71               [ 8]  827 	ld	(hl), c
                                    828 ;main.c:100: set_sprite_tile(8 + i, 16 + bullets[i].spriteIndex);
    00000311 F8 08            [12]  829 	ldhl	sp,	#8
    00000313 4E               [ 8]  830 	ld	c, (hl)
    00000314 06 00            [ 8]  831 	ld	b, #0x00
    00000316 69               [ 4]  832 	ld	l, c
    00000317 60               [ 4]  833 	ld	h, b
    00000318 29               [ 8]  834 	add	hl, hl
    00000319 09               [ 8]  835 	add	hl, bc
    0000031A 29               [ 8]  836 	add	hl, hl
    0000031B 09               [ 8]  837 	add	hl, bc
    0000031C 3Er00            [ 8]  838 	ld	a, #<(_bullets)
    0000031E 85               [ 4]  839 	add	a, l
    0000031F 4F               [ 4]  840 	ld	c, a
    00000320 3Es00            [ 8]  841 	ld	a, #>(_bullets)
    00000322 8C               [ 4]  842 	adc	a, h
    00000323 47               [ 4]  843 	ld	b, a
    00000324 21 06 00         [12]  844 	ld	hl, #0x0006
    00000327 09               [ 8]  845 	add	hl, bc
    00000328 7E               [ 8]  846 	ld	a, (hl)
    00000329 C6 10            [ 8]  847 	add	a, #0x10
    0000032B F8 07            [12]  848 	ldhl	sp,	#7
    0000032D 77               [ 8]  849 	ld	(hl), a
    0000032E F8 00            [12]  850 	ldhl	sp,	#0
                                    851 ;c:\gbdk\include\gb\gb.h:1875: shadow_OAM[nb].tile=tile;
    00000330 6E               [ 8]  852 	ld	l, (hl)
                                    853 ;	spillPairReg hl
                                    854 ;	spillPairReg hl
    00000331 26 00            [ 8]  855 	ld	h, #0x00
                                    856 ;	spillPairReg hl
                                    857 ;	spillPairReg hl
    00000333 29               [ 8]  858 	add	hl, hl
    00000334 29               [ 8]  859 	add	hl, hl
    00000335 11r00r00         [12]  860 	ld	de, #_shadow_OAM
    00000338 19               [ 8]  861 	add	hl, de
    00000339 23               [ 8]  862 	inc	hl
    0000033A 23               [ 8]  863 	inc	hl
    0000033B 5D               [ 4]  864 	ld	e, l
    0000033C 54               [ 4]  865 	ld	d, h
    0000033D F8 07            [12]  866 	ldhl	sp,	#7
    0000033F 7E               [ 8]  867 	ld	a, (hl)
    00000340 12               [ 8]  868 	ld	(de), a
                                    869 ;main.c:101: bullets[i].animationCounter = 0;
    00000341 21 05 00         [12]  870 	ld	hl, #0x0005
    00000344 09               [ 8]  871 	add	hl, bc
    00000345 36 00            [12]  872 	ld	(hl), #0x00
    00000347                        873 00102$:
                                    874 ;main.c:104: if (bullets[i].x > 160 || bullets[i].x < 0 ||
    00000347 F8 08            [12]  875 	ldhl	sp,	#8
    00000349 4E               [ 8]  876 	ld	c, (hl)
    0000034A 06 00            [ 8]  877 	ld	b, #0x00
    0000034C 69               [ 4]  878 	ld	l, c
    0000034D 60               [ 4]  879 	ld	h, b
    0000034E 29               [ 8]  880 	add	hl, hl
    0000034F 09               [ 8]  881 	add	hl, bc
    00000350 29               [ 8]  882 	add	hl, hl
    00000351 09               [ 8]  883 	add	hl, bc
    00000352 01r00r00         [12]  884 	ld	bc,#_bullets
    00000355 09               [ 8]  885 	add	hl,bc
    00000356 E5               [16]  886 	push	hl
    00000357 7D               [ 4]  887 	ld	a, l
    00000358 F8 03            [12]  888 	ldhl	sp,	#3
    0000035A 77               [ 8]  889 	ld	(hl), a
    0000035B E1               [12]  890 	pop	hl
    0000035C 7C               [ 4]  891 	ld	a, h
    0000035D F8 02            [12]  892 	ldhl	sp,	#2
    0000035F 32               [ 8]  893 	ld	(hl-), a
    00000360 2A               [ 8]  894 	ld	a, (hl+)
    00000361 5F               [ 4]  895 	ld	e, a
    00000362 56               [ 8]  896 	ld	d, (hl)
    00000363 1A               [ 8]  897 	ld	a, (de)
    00000364 F8 07            [12]  898 	ldhl	sp,	#7
    00000366 77               [ 8]  899 	ld	(hl), a
    00000367 3E A0            [ 8]  900 	ld	a, #0xa0
    00000369 96               [ 8]  901 	sub	a, (hl)
    0000036A DAr2Er04         [16]  902 	jp	C, 00103$
                                    903 ;main.c:105: bullets[i].y > 160 || bullets[i].y < 0 ||
    0000036D F8 01            [12]  904 	ldhl	sp,	#1
    0000036F 2A               [ 8]  905 	ld	a, (hl+)
    00000370 4F               [ 4]  906 	ld	c, a
    00000371 2A               [ 8]  907 	ld	a, (hl+)
    00000372 47               [ 4]  908 	ld	b, a
    00000373 03               [ 8]  909 	inc	bc
    00000374 0A               [ 8]  910 	ld	a, (bc)
    00000375 77               [ 8]  911 	ld	(hl), a
    00000376 3E A0            [ 8]  912 	ld	a, #0xa0
    00000378 96               [ 8]  913 	sub	a, (hl)
    00000379 DAr2Er04         [16]  914 	jp	C, 00103$
                                    915 ;main.c:106: (bullets[i].x > enemy_x - 8 && bullets[i].x < enemy_x + 8 &&
    0000037C 21r31r01         [12]  916 	ld	hl, #_enemy_x
    0000037F 4E               [ 8]  917 	ld	c, (hl)
    00000380 06 00            [ 8]  918 	ld	b, #0x00
    00000382 11 08 00         [12]  919 	ld	de, #0x0008
    00000385 79               [ 4]  920 	ld	a, c
    00000386 93               [ 4]  921 	sub	a, e
    00000387 5F               [ 4]  922 	ld	e, a
    00000388 78               [ 4]  923 	ld	a, b
    00000389 9A               [ 4]  924 	sbc	a, d
    0000038A F8 05            [12]  925 	ldhl	sp,	#5
    0000038C 32               [ 8]  926 	ld	(hl-), a
    0000038D 73               [ 8]  927 	ld	(hl), e
    0000038E F8 07            [12]  928 	ldhl	sp,	#7
    00000390 3A               [ 8]  929 	ld	a, (hl-)
    00000391 22               [ 8]  930 	ld	(hl+), a
    00000392 36 00            [12]  931 	ld	(hl), #0x00
    00000394 F8 04            [12]  932 	ldhl	sp,	#4
    00000396 5D               [ 4]  933 	ld	e, l
    00000397 54               [ 4]  934 	ld	d, h
    00000398 F8 06            [12]  935 	ldhl	sp,	#6
    0000039A 1A               [ 8]  936 	ld	a, (de)
    0000039B 13               [ 8]  937 	inc	de
    0000039C 96               [ 8]  938 	sub	a, (hl)
    0000039D 23               [ 8]  939 	inc	hl
    0000039E 1A               [ 8]  940 	ld	a, (de)
    0000039F 9E               [ 8]  941 	sbc	a, (hl)
    000003A0 1A               [ 8]  942 	ld	a, (de)
    000003A1 57               [ 4]  943 	ld	d, a
    000003A2 CB 7E            [12]  944 	bit	7, (hl)
    000003A4 28 07            [12]  945 	jr	Z, 00196$
    000003A6 CB 7A            [ 8]  946 	bit	7, d
    000003A8 20 08            [12]  947 	jr	NZ, 00197$
    000003AA BF               [ 4]  948 	cp	a, a
    000003AB 18 05            [12]  949 	jr	00197$
    000003AD                        950 00196$:
    000003AD CB 7A            [ 8]  951 	bit	7, d
    000003AF 28 01            [12]  952 	jr	Z, 00197$
    000003B1 37               [ 4]  953 	scf
    000003B2                        954 00197$:
    000003B2 D2r4Ar04         [16]  955 	jp	NC, 00120$
    000003B5 21 08 00         [12]  956 	ld	hl, #0x0008
    000003B8 09               [ 8]  957 	add	hl, bc
    000003B9 4D               [ 4]  958 	ld	c, l
    000003BA 44               [ 4]  959 	ld	b, h
    000003BB F8 06            [12]  960 	ldhl	sp,	#6
    000003BD 2A               [ 8]  961 	ld	a, (hl+)
    000003BE 91               [ 4]  962 	sub	a, c
    000003BF 7E               [ 8]  963 	ld	a, (hl)
    000003C0 98               [ 4]  964 	sbc	a, b
    000003C1 56               [ 8]  965 	ld	d, (hl)
    000003C2 78               [ 4]  966 	ld	a, b
    000003C3 CB 7F            [ 8]  967 	bit	7,a
    000003C5 28 07            [12]  968 	jr	Z, 00198$
    000003C7 CB 7A            [ 8]  969 	bit	7, d
    000003C9 20 08            [12]  970 	jr	NZ, 00199$
    000003CB BF               [ 4]  971 	cp	a, a
    000003CC 18 05            [12]  972 	jr	00199$
    000003CE                        973 00198$:
    000003CE CB 7A            [ 8]  974 	bit	7, d
    000003D0 28 01            [12]  975 	jr	Z, 00199$
    000003D2 37               [ 4]  976 	scf
    000003D3                        977 00199$:
    000003D3 30 75            [12]  978 	jr	NC, 00120$
                                    979 ;main.c:107: bullets[i].y > enemy_y - 8 && bullets[i].y < enemy_y + 8)) {
    000003D5 21r32r01         [12]  980 	ld	hl, #_enemy_y
    000003D8 4E               [ 8]  981 	ld	c, (hl)
    000003D9 06 00            [ 8]  982 	ld	b, #0x00
    000003DB 11 08 00         [12]  983 	ld	de, #0x0008
    000003DE 79               [ 4]  984 	ld	a, c
    000003DF 93               [ 4]  985 	sub	a, e
    000003E0 5F               [ 4]  986 	ld	e, a
    000003E1 78               [ 4]  987 	ld	a, b
    000003E2 9A               [ 4]  988 	sbc	a, d
    000003E3 F8 05            [12]  989 	ldhl	sp,	#5
    000003E5 32               [ 8]  990 	ld	(hl-), a
    000003E6 7B               [ 4]  991 	ld	a, e
    000003E7 32               [ 8]  992 	ld	(hl-), a
    000003E8 7E               [ 8]  993 	ld	a, (hl)
    000003E9 F8 06            [12]  994 	ldhl	sp,	#6
    000003EB 22               [ 8]  995 	ld	(hl+), a
    000003EC 36 00            [12]  996 	ld	(hl), #0x00
    000003EE F8 04            [12]  997 	ldhl	sp,	#4
    000003F0 5D               [ 4]  998 	ld	e, l
    000003F1 54               [ 4]  999 	ld	d, h
    000003F2 F8 06            [12] 1000 	ldhl	sp,	#6
    000003F4 1A               [ 8] 1001 	ld	a, (de)
    000003F5 13               [ 8] 1002 	inc	de
    000003F6 96               [ 8] 1003 	sub	a, (hl)
    000003F7 23               [ 8] 1004 	inc	hl
    000003F8 1A               [ 8] 1005 	ld	a, (de)
    000003F9 9E               [ 8] 1006 	sbc	a, (hl)
    000003FA 1A               [ 8] 1007 	ld	a, (de)
    000003FB 57               [ 4] 1008 	ld	d, a
    000003FC CB 7E            [12] 1009 	bit	7, (hl)
    000003FE 28 07            [12] 1010 	jr	Z, 00200$
    00000400 CB 7A            [ 8] 1011 	bit	7, d
    00000402 20 08            [12] 1012 	jr	NZ, 00201$
    00000404 BF               [ 4] 1013 	cp	a, a
    00000405 18 05            [12] 1014 	jr	00201$
    00000407                       1015 00200$:
    00000407 CB 7A            [ 8] 1016 	bit	7, d
    00000409 28 01            [12] 1017 	jr	Z, 00201$
    0000040B 37               [ 4] 1018 	scf
    0000040C                       1019 00201$:
    0000040C 30 3C            [12] 1020 	jr	NC, 00120$
    0000040E 21 08 00         [12] 1021 	ld	hl, #0x0008
    00000411 09               [ 8] 1022 	add	hl, bc
    00000412 4D               [ 4] 1023 	ld	c, l
    00000413 44               [ 4] 1024 	ld	b, h
    00000414 F8 06            [12] 1025 	ldhl	sp,	#6
    00000416 2A               [ 8] 1026 	ld	a, (hl+)
    00000417 91               [ 4] 1027 	sub	a, c
    00000418 7E               [ 8] 1028 	ld	a, (hl)
    00000419 98               [ 4] 1029 	sbc	a, b
    0000041A 56               [ 8] 1030 	ld	d, (hl)
    0000041B 78               [ 4] 1031 	ld	a, b
    0000041C CB 7F            [ 8] 1032 	bit	7,a
    0000041E 28 07            [12] 1033 	jr	Z, 00202$
    00000420 CB 7A            [ 8] 1034 	bit	7, d
    00000422 20 08            [12] 1035 	jr	NZ, 00203$
    00000424 BF               [ 4] 1036 	cp	a, a
    00000425 18 05            [12] 1037 	jr	00203$
    00000427                       1038 00202$:
    00000427 CB 7A            [ 8] 1039 	bit	7, d
    00000429 28 01            [12] 1040 	jr	Z, 00203$
    0000042B 37               [ 4] 1041 	scf
    0000042C                       1042 00203$:
    0000042C 30 1C            [12] 1043 	jr	NC, 00120$
    0000042E                       1044 00103$:
                                   1045 ;main.c:108: bullets[i].active = 0;
    0000042E F8 01            [12] 1046 	ldhl	sp,#1
    00000430 2A               [ 8] 1047 	ld	a, (hl+)
    00000431 5F               [ 4] 1048 	ld	e, a
    00000432 56               [ 8] 1049 	ld	d, (hl)
    00000433 21 04 00         [12] 1050 	ld	hl, #0x0004
    00000436 19               [ 8] 1051 	add	hl, de
    00000437 4D               [ 4] 1052 	ld	c, l
    00000438 44               [ 4] 1053 	ld	b, h
    00000439 AF               [ 4] 1054 	xor	a, a
    0000043A 02               [ 8] 1055 	ld	(bc), a
                                   1056 ;main.c:109: move_sprite(8 + i, 0, 0);
    0000043B F8 00            [12] 1057 	ldhl	sp,	#0
    0000043D 4E               [ 8] 1058 	ld	c, (hl)
                                   1059 ;c:\gbdk\include\gb\gb.h:1961: OAM_item_t * itm = &shadow_OAM[nb];
    0000043E AF               [ 4] 1060 	xor	a, a
    0000043F 69               [ 4] 1061 	ld	l, c
    00000440 67               [ 4] 1062 	ld	h, a
    00000441 29               [ 8] 1063 	add	hl, hl
    00000442 29               [ 8] 1064 	add	hl, hl
    00000443 11r00r00         [12] 1065 	ld	de, #_shadow_OAM
    00000446 19               [ 8] 1066 	add	hl, de
                                   1067 ;c:\gbdk\include\gb\gb.h:1962: itm->y=y, itm->x=x;
    00000447 AF               [ 4] 1068 	xor	a, a
    00000448 22               [ 8] 1069 	ld	(hl+), a
    00000449 77               [ 8] 1070 	ld	(hl), a
                                   1071 ;main.c:109: move_sprite(8 + i, 0, 0);
    0000044A                       1072 00120$:
                                   1073 ;main.c:91: for (UINT8 i = 0; i < MAX_BULLETS; i++) {
    0000044A F8 08            [12] 1074 	ldhl	sp,	#8
    0000044C 34               [12] 1075 	inc	(hl)
    0000044D C3r61r02         [16] 1076 	jp	00119$
    00000450                       1077 00121$:
                                   1078 ;main.c:113: }
    00000450 E8 09            [16] 1079 	add	sp, #9
    00000452 C9               [16] 1080 	ret
                                   1081 ;main.c:116: void update_enemy_sprite() {
                                   1082 ;	---------------------------------
                                   1083 ; Function update_enemy_sprite
                                   1084 ; ---------------------------------
    00000453                       1085 _update_enemy_sprite::
                                   1086 ;main.c:117: int move_x = 0;
                                   1087 ;main.c:118: int move_y = 0;
    00000453 0E 00            [ 8] 1088 	ld	c, #0x00
    00000455 51               [ 4] 1089 	ld	d, c
                                   1090 ;main.c:120: if (enemy_x < hero_x) move_x = 1;
    00000456 FAr31r01         [16] 1091 	ld	a, (#_enemy_x)
    00000459 21r36r01         [12] 1092 	ld	hl, #_hero_x
    0000045C 96               [ 8] 1093 	sub	a, (hl)
    0000045D 30 04            [12] 1094 	jr	NC, 00104$
    0000045F 0E 01            [ 8] 1095 	ld	c, #0x01
    00000461 18 0B            [12] 1096 	jr	00105$
    00000463                       1097 00104$:
                                   1098 ;main.c:121: else if (enemy_x > hero_x) move_x = -1;
    00000463 FAr36r01         [16] 1099 	ld	a, (#_hero_x)
    00000466 21r31r01         [12] 1100 	ld	hl, #_enemy_x
    00000469 96               [ 8] 1101 	sub	a, (hl)
    0000046A 30 02            [12] 1102 	jr	NC, 00105$
    0000046C 0E FF            [ 8] 1103 	ld	c, #0xff
    0000046E                       1104 00105$:
                                   1105 ;main.c:122: if (enemy_y < hero_y) move_y = 1;
    0000046E FAr32r01         [16] 1106 	ld	a, (#_enemy_y)
    00000471 21r37r01         [12] 1107 	ld	hl, #_hero_y
    00000474 96               [ 8] 1108 	sub	a, (hl)
    00000475 30 04            [12] 1109 	jr	NC, 00109$
    00000477 16 01            [ 8] 1110 	ld	d, #0x01
    00000479 18 0B            [12] 1111 	jr	00110$
    0000047B                       1112 00109$:
                                   1113 ;main.c:123: else if (enemy_y > hero_y) move_y = -1;
    0000047B FAr37r01         [16] 1114 	ld	a, (#_hero_y)
    0000047E 21r32r01         [12] 1115 	ld	hl, #_enemy_y
    00000481 96               [ 8] 1116 	sub	a, (hl)
    00000482 30 02            [12] 1117 	jr	NC, 00110$
    00000484 16 FF            [ 8] 1118 	ld	d, #0xff
    00000486                       1119 00110$:
                                   1120 ;main.c:125: enemy_x += move_x * 4 * enemySpeed;
    00000486 79               [ 4] 1121 	ld	a, c
    00000487 87               [ 4] 1122 	add	a, a
    00000488 87               [ 4] 1123 	add	a, a
    00000489 4F               [ 4] 1124 	ld	c, a
    0000048A D5               [16] 1125 	push	de
    0000048B 21r34r01         [12] 1126 	ld	hl, #_enemySpeed
    0000048E 5E               [ 8] 1127 	ld	e, (hl)
    0000048F 79               [ 4] 1128 	ld	a, c
    00000490 CDr00r00         [24] 1129 	call	__muluschar
    00000493 D1               [12] 1130 	pop	de
    00000494 21r31r01         [12] 1131 	ld	hl, #_enemy_x
    00000497 7E               [ 8] 1132 	ld	a, (hl)
    00000498 81               [ 4] 1133 	add	a, c
    00000499 77               [ 8] 1134 	ld	(hl), a
                                   1135 ;main.c:126: enemy_y += move_y * 4 * enemySpeed;
    0000049A 7A               [ 4] 1136 	ld	a, d
    0000049B 87               [ 4] 1137 	add	a, a
    0000049C 87               [ 4] 1138 	add	a, a
    0000049D 4F               [ 4] 1139 	ld	c, a
    0000049E 21r34r01         [12] 1140 	ld	hl, #_enemySpeed
    000004A1 5E               [ 8] 1141 	ld	e, (hl)
    000004A2 79               [ 4] 1142 	ld	a, c
    000004A3 CDr00r00         [24] 1143 	call	__muluschar
    000004A6 21r32r01         [12] 1144 	ld	hl, #_enemy_y
    000004A9 7E               [ 8] 1145 	ld	a, (hl)
    000004AA 81               [ 4] 1146 	add	a, c
    000004AB 77               [ 8] 1147 	ld	(hl), a
                                   1148 ;main.c:128: move_sprite(4, enemy_x, enemy_y);
    000004AC 46               [ 8] 1149 	ld	b, (hl)
    000004AD 21r31r01         [12] 1150 	ld	hl, #_enemy_x
    000004B0 4E               [ 8] 1151 	ld	c, (hl)
                                   1152 ;c:\gbdk\include\gb\gb.h:1961: OAM_item_t * itm = &shadow_OAM[nb];
    000004B1 21r10r00         [12] 1153 	ld	hl, #(_shadow_OAM + 16)
                                   1154 ;c:\gbdk\include\gb\gb.h:1962: itm->y=y, itm->x=x;
    000004B4 78               [ 4] 1155 	ld	a, b
    000004B5 22               [ 8] 1156 	ld	(hl+), a
    000004B6 71               [ 8] 1157 	ld	(hl), c
                                   1158 ;main.c:129: move_sprite(5, enemy_x + 8, enemy_y);
    000004B7 21r32r01         [12] 1159 	ld	hl, #_enemy_y
    000004BA 46               [ 8] 1160 	ld	b, (hl)
    000004BB FAr31r01         [16] 1161 	ld	a, (#_enemy_x)
    000004BE C6 08            [ 8] 1162 	add	a, #0x08
    000004C0 4F               [ 4] 1163 	ld	c, a
                                   1164 ;c:\gbdk\include\gb\gb.h:1961: OAM_item_t * itm = &shadow_OAM[nb];
    000004C1 21r14r00         [12] 1165 	ld	hl, #(_shadow_OAM + 20)
                                   1166 ;c:\gbdk\include\gb\gb.h:1962: itm->y=y, itm->x=x;
    000004C4 78               [ 4] 1167 	ld	a, b
    000004C5 22               [ 8] 1168 	ld	(hl+), a
    000004C6 71               [ 8] 1169 	ld	(hl), c
                                   1170 ;main.c:130: move_sprite(6, enemy_x, enemy_y + 8);
    000004C7 FAr32r01         [16] 1171 	ld	a, (#_enemy_y)
    000004CA C6 08            [ 8] 1172 	add	a, #0x08
    000004CC 47               [ 4] 1173 	ld	b, a
    000004CD 21r31r01         [12] 1174 	ld	hl, #_enemy_x
    000004D0 4E               [ 8] 1175 	ld	c, (hl)
                                   1176 ;c:\gbdk\include\gb\gb.h:1961: OAM_item_t * itm = &shadow_OAM[nb];
    000004D1 21r18r00         [12] 1177 	ld	hl, #(_shadow_OAM + 24)
                                   1178 ;c:\gbdk\include\gb\gb.h:1962: itm->y=y, itm->x=x;
    000004D4 78               [ 4] 1179 	ld	a, b
    000004D5 22               [ 8] 1180 	ld	(hl+), a
    000004D6 71               [ 8] 1181 	ld	(hl), c
                                   1182 ;main.c:131: move_sprite(7, enemy_x + 8, enemy_y + 8);
    000004D7 FAr32r01         [16] 1183 	ld	a, (#_enemy_y)
    000004DA C6 08            [ 8] 1184 	add	a, #0x08
    000004DC 47               [ 4] 1185 	ld	b, a
    000004DD FAr31r01         [16] 1186 	ld	a, (#_enemy_x)
    000004E0 C6 08            [ 8] 1187 	add	a, #0x08
    000004E2 4F               [ 4] 1188 	ld	c, a
                                   1189 ;c:\gbdk\include\gb\gb.h:1961: OAM_item_t * itm = &shadow_OAM[nb];
    000004E3 21r1Cr00         [12] 1190 	ld	hl, #(_shadow_OAM + 28)
                                   1191 ;c:\gbdk\include\gb\gb.h:1962: itm->y=y, itm->x=x;
    000004E6 78               [ 4] 1192 	ld	a, b
    000004E7 22               [ 8] 1193 	ld	(hl+), a
    000004E8 71               [ 8] 1194 	ld	(hl), c
                                   1195 ;main.c:133: enemyAnimationCounter++;
    000004E9 21r35r01         [12] 1196 	ld	hl, #_enemyAnimationCounter
    000004EC 34               [12] 1197 	inc	(hl)
                                   1198 ;main.c:134: if (enemyAnimationCounter > 1) {
    000004ED 3E 01            [ 8] 1199 	ld	a, #0x01
    000004EF 96               [ 8] 1200 	sub	a, (hl)
    000004F0 D0               [20] 1201 	ret	NC
                                   1202 ;main.c:135: enemySpriteIndex = 1 - enemySpriteIndex;
    000004F1 21r33r01         [12] 1203 	ld	hl, #_enemySpriteIndex
    000004F4 4E               [ 8] 1204 	ld	c, (hl)
    000004F5 3E 01            [ 8] 1205 	ld	a, #0x01
    000004F7 91               [ 4] 1206 	sub	a, c
    000004F8 77               [ 8] 1207 	ld	(hl), a
                                   1208 ;main.c:136: set_sprite_tile(4, enemySpriteIndex ? 8 : 12);
    000004F9 7E               [ 8] 1209 	ld	a, (hl)
    000004FA B7               [ 4] 1210 	or	a, a
    000004FB 0E 08            [ 8] 1211 	ld	c, #0x08
    000004FD 20 02            [12] 1212 	jr	NZ, 00124$
    000004FF 0E 0C            [ 8] 1213 	ld	c, #0x0c
    00000501                       1214 00124$:
                                   1215 ;c:\gbdk\include\gb\gb.h:1875: shadow_OAM[nb].tile=tile;
    00000501 21r12r00         [12] 1216 	ld	hl, #(_shadow_OAM + 18)
    00000504 71               [ 8] 1217 	ld	(hl), c
                                   1218 ;main.c:137: set_sprite_tile(5, enemySpriteIndex ? 9 : 13);
    00000505 FAr33r01         [16] 1219 	ld	a, (#_enemySpriteIndex)
    00000508 B7               [ 4] 1220 	or	a, a
    00000509 0E 09            [ 8] 1221 	ld	c, #0x09
    0000050B 20 02            [12] 1222 	jr	NZ, 00126$
    0000050D 0E 0D            [ 8] 1223 	ld	c, #0x0d
    0000050F                       1224 00126$:
                                   1225 ;c:\gbdk\include\gb\gb.h:1875: shadow_OAM[nb].tile=tile;
    0000050F 21r16r00         [12] 1226 	ld	hl, #(_shadow_OAM + 22)
    00000512 71               [ 8] 1227 	ld	(hl), c
                                   1228 ;main.c:138: set_sprite_tile(6, enemySpriteIndex ? 10 : 14);
    00000513 FAr33r01         [16] 1229 	ld	a, (#_enemySpriteIndex)
    00000516 B7               [ 4] 1230 	or	a, a
    00000517 0E 0A            [ 8] 1231 	ld	c, #0x0a
    00000519 20 02            [12] 1232 	jr	NZ, 00128$
    0000051B 0E 0E            [ 8] 1233 	ld	c, #0x0e
    0000051D                       1234 00128$:
                                   1235 ;c:\gbdk\include\gb\gb.h:1875: shadow_OAM[nb].tile=tile;
    0000051D 21r1Ar00         [12] 1236 	ld	hl, #(_shadow_OAM + 26)
    00000520 71               [ 8] 1237 	ld	(hl), c
                                   1238 ;main.c:139: set_sprite_tile(7, enemySpriteIndex ? 11 : 15);
    00000521 FAr33r01         [16] 1239 	ld	a, (#_enemySpriteIndex)
    00000524 B7               [ 4] 1240 	or	a, a
    00000525 0E 0B            [ 8] 1241 	ld	c, #0x0b
    00000527 20 02            [12] 1242 	jr	NZ, 00130$
    00000529 0E 0F            [ 8] 1243 	ld	c, #0x0f
    0000052B                       1244 00130$:
                                   1245 ;c:\gbdk\include\gb\gb.h:1875: shadow_OAM[nb].tile=tile;
    0000052B 21r1Er00         [12] 1246 	ld	hl, #(_shadow_OAM + 30)
    0000052E 71               [ 8] 1247 	ld	(hl), c
                                   1248 ;main.c:140: enemyAnimationCounter = 0;
    0000052F 21r35r01         [12] 1249 	ld	hl, #_enemyAnimationCounter
    00000532 36 00            [12] 1250 	ld	(hl), #0x00
                                   1251 ;main.c:142: }
    00000534 C9               [16] 1252 	ret
                                   1253 ;main.c:146: void update_health_display() {
                                   1254 ;	---------------------------------
                                   1255 ; Function update_health_display
                                   1256 ; ---------------------------------
    00000535                       1257 _update_health_display::
    00000535 E8 FB            [16] 1258 	add	sp, #-5
                                   1259 ;main.c:148: UINT8 emptyLine[5] = {0x00, 0x00, 0x00, 0x00, 0x00};  // Ligne de tuiles vides
    00000537 F8 00            [12] 1260 	ldhl	sp,	#0
    00000539 4D               [ 4] 1261 	ld	c, l
    0000053A 44               [ 4] 1262 	ld	b, h
    0000053B AF               [ 4] 1263 	xor	a, a
    0000053C 02               [ 8] 1264 	ld	(bc), a
    0000053D F8 01            [12] 1265 	ldhl	sp,	#1
    0000053F AF               [ 4] 1266 	xor	a, a
    00000540 22               [ 8] 1267 	ld	(hl+), a
    00000541 AF               [ 4] 1268 	xor	a, a
    00000542 22               [ 8] 1269 	ld	(hl+), a
    00000543 AF               [ 4] 1270 	xor	a, a
    00000544 22               [ 8] 1271 	ld	(hl+), a
    00000545 77               [ 8] 1272 	ld	(hl), a
                                   1273 ;main.c:149: set_win_tiles(0, 0, 5, 1, emptyLine);  // Efface la ligne en plaant 5 tuiles vides
    00000546 C5               [16] 1274 	push	bc
    00000547 21 05 01         [12] 1275 	ld	hl, #0x105
    0000054A E5               [16] 1276 	push	hl
    0000054B AF               [ 4] 1277 	xor	a, a
    0000054C 0F               [ 4] 1278 	rrca
    0000054D F5               [16] 1279 	push	af
    0000054E CDr00r00         [24] 1280 	call	_set_win_tiles
    00000551 E8 06            [16] 1281 	add	sp, #6
                                   1282 ;main.c:151: switch (heroHealth) {
    00000553 FAr39r01         [16] 1283 	ld	a,(#_heroHealth)
    00000556 FE 19            [ 8] 1284 	cp	a,#0x19
    00000558 28 42            [12] 1285 	jr	Z, 00104$
    0000055A FE 32            [ 8] 1286 	cp	a,#0x32
    0000055C 28 2C            [12] 1287 	jr	Z, 00103$
    0000055E FE 4B            [ 8] 1288 	cp	a,#0x4b
    00000560 28 16            [12] 1289 	jr	Z, 00102$
    00000562 D6 64            [ 8] 1290 	sub	a, #0x64
    00000564 20 46            [12] 1291 	jr	NZ, 00106$
                                   1292 ;main.c:154: set_win_tiles(0, 0, 5, 1, windowHeroMetric100);
    00000566 11r00r00         [12] 1293 	ld	de, #_windowHeroMetric100
    00000569 D5               [16] 1294 	push	de
    0000056A 21 05 01         [12] 1295 	ld	hl, #0x105
    0000056D E5               [16] 1296 	push	hl
    0000056E AF               [ 4] 1297 	xor	a, a
    0000056F 0F               [ 4] 1298 	rrca
    00000570 F5               [16] 1299 	push	af
    00000571 CDr00r00         [24] 1300 	call	_set_win_tiles
    00000574 E8 06            [16] 1301 	add	sp, #6
                                   1302 ;main.c:155: break;
    00000576 18 34            [12] 1303 	jr	00106$
                                   1304 ;main.c:156: case 75:
    00000578                       1305 00102$:
                                   1306 ;main.c:158: set_win_tiles(0, 0, 4, 1, windowHeroMetric75);
    00000578 11r05r00         [12] 1307 	ld	de, #_windowHeroMetric75
    0000057B D5               [16] 1308 	push	de
    0000057C 21 04 01         [12] 1309 	ld	hl, #0x104
    0000057F E5               [16] 1310 	push	hl
    00000580 AF               [ 4] 1311 	xor	a, a
    00000581 0F               [ 4] 1312 	rrca
    00000582 F5               [16] 1313 	push	af
    00000583 CDr00r00         [24] 1314 	call	_set_win_tiles
    00000586 E8 06            [16] 1315 	add	sp, #6
                                   1316 ;main.c:159: break;
    00000588 18 22            [12] 1317 	jr	00106$
                                   1318 ;main.c:160: case 50:
    0000058A                       1319 00103$:
                                   1320 ;main.c:162: set_win_tiles(0, 0, 4, 1, windowHeroMetric50);
    0000058A 11r09r00         [12] 1321 	ld	de, #_windowHeroMetric50
    0000058D D5               [16] 1322 	push	de
    0000058E 21 04 01         [12] 1323 	ld	hl, #0x104
    00000591 E5               [16] 1324 	push	hl
    00000592 AF               [ 4] 1325 	xor	a, a
    00000593 0F               [ 4] 1326 	rrca
    00000594 F5               [16] 1327 	push	af
    00000595 CDr00r00         [24] 1328 	call	_set_win_tiles
    00000598 E8 06            [16] 1329 	add	sp, #6
                                   1330 ;main.c:163: break;
    0000059A 18 10            [12] 1331 	jr	00106$
                                   1332 ;main.c:164: case 25:
    0000059C                       1333 00104$:
                                   1334 ;main.c:166: set_win_tiles(0, 0, 4, 1, windowHeroMetric25);
    0000059C 11r0Dr00         [12] 1335 	ld	de, #_windowHeroMetric25
    0000059F D5               [16] 1336 	push	de
    000005A0 21 04 01         [12] 1337 	ld	hl, #0x104
    000005A3 E5               [16] 1338 	push	hl
    000005A4 AF               [ 4] 1339 	xor	a, a
    000005A5 0F               [ 4] 1340 	rrca
    000005A6 F5               [16] 1341 	push	af
    000005A7 CDr00r00         [24] 1342 	call	_set_win_tiles
    000005AA E8 06            [16] 1343 	add	sp, #6
                                   1344 ;main.c:168: }
    000005AC                       1345 00106$:
                                   1346 ;main.c:169: }
    000005AC E8 05            [16] 1347 	add	sp, #5
    000005AE C9               [16] 1348 	ret
                                   1349 ;main.c:172: void handle_hero_collision() {
                                   1350 ;	---------------------------------
                                   1351 ; Function handle_hero_collision
                                   1352 ; ---------------------------------
    000005AF                       1353 _handle_hero_collision::
    000005AF E8 FC            [16] 1354 	add	sp, #-4
                                   1355 ;main.c:173: if (enemy_x > hero_x - 16 && enemy_x < hero_x + 16 &&
    000005B1 21r36r01         [12] 1356 	ld	hl, #_hero_x
    000005B4 4E               [ 8] 1357 	ld	c, (hl)
    000005B5 06 00            [ 8] 1358 	ld	b, #0x00
    000005B7 11 10 00         [12] 1359 	ld	de, #0x0010
    000005BA 79               [ 4] 1360 	ld	a, c
    000005BB 93               [ 4] 1361 	sub	a, e
    000005BC 5F               [ 4] 1362 	ld	e, a
    000005BD 78               [ 4] 1363 	ld	a, b
    000005BE 9A               [ 4] 1364 	sbc	a, d
    000005BF F8 01            [12] 1365 	ldhl	sp,	#1
    000005C1 32               [ 8] 1366 	ld	(hl-), a
    000005C2 73               [ 8] 1367 	ld	(hl), e
    000005C3 FAr31r01         [16] 1368 	ld	a, (#_enemy_x)
    000005C6 F8 02            [12] 1369 	ldhl	sp,	#2
    000005C8 22               [ 8] 1370 	ld	(hl+), a
    000005C9 36 00            [12] 1371 	ld	(hl), #0x00
    000005CB F8 00            [12] 1372 	ldhl	sp,	#0
    000005CD 5D               [ 4] 1373 	ld	e, l
    000005CE 54               [ 4] 1374 	ld	d, h
    000005CF F8 02            [12] 1375 	ldhl	sp,	#2
    000005D1 1A               [ 8] 1376 	ld	a, (de)
    000005D2 13               [ 8] 1377 	inc	de
    000005D3 96               [ 8] 1378 	sub	a, (hl)
    000005D4 23               [ 8] 1379 	inc	hl
    000005D5 1A               [ 8] 1380 	ld	a, (de)
    000005D6 9E               [ 8] 1381 	sbc	a, (hl)
    000005D7 1A               [ 8] 1382 	ld	a, (de)
    000005D8 57               [ 4] 1383 	ld	d, a
    000005D9 CB 7E            [12] 1384 	bit	7, (hl)
    000005DB 28 07            [12] 1385 	jr	Z, 00155$
    000005DD CB 7A            [ 8] 1386 	bit	7, d
    000005DF 20 08            [12] 1387 	jr	NZ, 00156$
    000005E1 BF               [ 4] 1388 	cp	a, a
    000005E2 18 05            [12] 1389 	jr	00156$
    000005E4                       1390 00155$:
    000005E4 CB 7A            [ 8] 1391 	bit	7, d
    000005E6 28 01            [12] 1392 	jr	Z, 00156$
    000005E8 37               [ 4] 1393 	scf
    000005E9                       1394 00156$:
    000005E9 D2r85r06         [16] 1395 	jp	NC, 00111$
    000005EC 21 10 00         [12] 1396 	ld	hl, #0x0010
    000005EF 09               [ 8] 1397 	add	hl, bc
    000005F0 4D               [ 4] 1398 	ld	c, l
    000005F1 44               [ 4] 1399 	ld	b, h
    000005F2 F8 02            [12] 1400 	ldhl	sp,	#2
    000005F4 2A               [ 8] 1401 	ld	a, (hl+)
    000005F5 91               [ 4] 1402 	sub	a, c
    000005F6 7E               [ 8] 1403 	ld	a, (hl)
    000005F7 98               [ 4] 1404 	sbc	a, b
    000005F8 56               [ 8] 1405 	ld	d, (hl)
    000005F9 78               [ 4] 1406 	ld	a, b
    000005FA CB 7F            [ 8] 1407 	bit	7,a
    000005FC 28 07            [12] 1408 	jr	Z, 00157$
    000005FE CB 7A            [ 8] 1409 	bit	7, d
    00000600 20 08            [12] 1410 	jr	NZ, 00158$
    00000602 BF               [ 4] 1411 	cp	a, a
    00000603 18 05            [12] 1412 	jr	00158$
    00000605                       1413 00157$:
    00000605 CB 7A            [ 8] 1414 	bit	7, d
    00000607 28 01            [12] 1415 	jr	Z, 00158$
    00000609 37               [ 4] 1416 	scf
    0000060A                       1417 00158$:
    0000060A 30 79            [12] 1418 	jr	NC, 00111$
                                   1419 ;main.c:174: enemy_y > hero_y - 16 && enemy_y < hero_y + 16) {
    0000060C 21r37r01         [12] 1420 	ld	hl, #_hero_y
    0000060F 4E               [ 8] 1421 	ld	c, (hl)
    00000610 06 00            [ 8] 1422 	ld	b, #0x00
    00000612 11 10 00         [12] 1423 	ld	de, #0x0010
    00000615 79               [ 4] 1424 	ld	a, c
    00000616 93               [ 4] 1425 	sub	a, e
    00000617 5F               [ 4] 1426 	ld	e, a
    00000618 78               [ 4] 1427 	ld	a, b
    00000619 9A               [ 4] 1428 	sbc	a, d
    0000061A F8 01            [12] 1429 	ldhl	sp,	#1
    0000061C 32               [ 8] 1430 	ld	(hl-), a
    0000061D 73               [ 8] 1431 	ld	(hl), e
    0000061E FAr32r01         [16] 1432 	ld	a, (#_enemy_y)
    00000621 F8 02            [12] 1433 	ldhl	sp,	#2
    00000623 22               [ 8] 1434 	ld	(hl+), a
    00000624 36 00            [12] 1435 	ld	(hl), #0x00
    00000626 F8 00            [12] 1436 	ldhl	sp,	#0
    00000628 5D               [ 4] 1437 	ld	e, l
    00000629 54               [ 4] 1438 	ld	d, h
    0000062A F8 02            [12] 1439 	ldhl	sp,	#2
    0000062C 1A               [ 8] 1440 	ld	a, (de)
    0000062D 13               [ 8] 1441 	inc	de
    0000062E 96               [ 8] 1442 	sub	a, (hl)
    0000062F 23               [ 8] 1443 	inc	hl
    00000630 1A               [ 8] 1444 	ld	a, (de)
    00000631 9E               [ 8] 1445 	sbc	a, (hl)
    00000632 1A               [ 8] 1446 	ld	a, (de)
    00000633 57               [ 4] 1447 	ld	d, a
    00000634 CB 7E            [12] 1448 	bit	7, (hl)
    00000636 28 07            [12] 1449 	jr	Z, 00159$
    00000638 CB 7A            [ 8] 1450 	bit	7, d
    0000063A 20 08            [12] 1451 	jr	NZ, 00160$
    0000063C BF               [ 4] 1452 	cp	a, a
    0000063D 18 05            [12] 1453 	jr	00160$
    0000063F                       1454 00159$:
    0000063F CB 7A            [ 8] 1455 	bit	7, d
    00000641 28 01            [12] 1456 	jr	Z, 00160$
    00000643 37               [ 4] 1457 	scf
    00000644                       1458 00160$:
    00000644 30 3F            [12] 1459 	jr	NC, 00111$
    00000646 21 10 00         [12] 1460 	ld	hl, #0x0010
    00000649 09               [ 8] 1461 	add	hl, bc
    0000064A 4D               [ 4] 1462 	ld	c, l
    0000064B 44               [ 4] 1463 	ld	b, h
    0000064C F8 02            [12] 1464 	ldhl	sp,	#2
    0000064E 2A               [ 8] 1465 	ld	a, (hl+)
    0000064F 91               [ 4] 1466 	sub	a, c
    00000650 7E               [ 8] 1467 	ld	a, (hl)
    00000651 98               [ 4] 1468 	sbc	a, b
    00000652 56               [ 8] 1469 	ld	d, (hl)
    00000653 78               [ 4] 1470 	ld	a, b
    00000654 CB 7F            [ 8] 1471 	bit	7,a
    00000656 28 07            [12] 1472 	jr	Z, 00161$
    00000658 CB 7A            [ 8] 1473 	bit	7, d
    0000065A 20 08            [12] 1474 	jr	NZ, 00162$
    0000065C BF               [ 4] 1475 	cp	a, a
    0000065D 18 05            [12] 1476 	jr	00162$
    0000065F                       1477 00161$:
    0000065F CB 7A            [ 8] 1478 	bit	7, d
    00000661 28 01            [12] 1479 	jr	Z, 00162$
    00000663 37               [ 4] 1480 	scf
    00000664                       1481 00162$:
    00000664 30 1F            [12] 1482 	jr	NC, 00111$
                                   1483 ;main.c:175: heroHealth -= 25;
    00000666 21r39r01         [12] 1484 	ld	hl, #_heroHealth
    00000669 7E               [ 8] 1485 	ld	a, (hl)
    0000066A C6 E7            [ 8] 1486 	add	a, #0xe7
    0000066C 77               [ 8] 1487 	ld	(hl), a
                                   1488 ;main.c:176: update_health_display();
    0000066D CDr35r05         [24] 1489 	call	_update_health_display
                                   1490 ;main.c:178: if (heroHealth == 0) {
    00000670 FAr39r01         [16] 1491 	ld	a, (#_heroHealth)
    00000673 B7               [ 4] 1492 	or	a, a
    00000674 20 0F            [12] 1493 	jr	NZ, 00111$
                                   1494 ;main.c:179: printf("Game Over");
    00000676 11r88r06         [12] 1495 	ld	de, #___str_0
    00000679 D5               [16] 1496 	push	de
    0000067A CDr00r00         [24] 1497 	call	_printf
    0000067D E1               [12] 1498 	pop	hl
                                   1499 ;main.c:180: display_win = 0;  // Hide window on game over
    0000067E 21r3Ar01         [12] 1500 	ld	hl, #_display_win
    00000681 36 00            [12] 1501 	ld	(hl), #0x00
                                   1502 ;main.c:181: while (1); // Halt game
    00000683                       1503 00102$:
    00000683 18 FE            [12] 1504 	jr	00102$
    00000685                       1505 00111$:
                                   1506 ;main.c:184: }
    00000685 E8 04            [16] 1507 	add	sp, #4
    00000687 C9               [16] 1508 	ret
    00000688                       1509 ___str_0:
    00000688 47 61 6D 65 20 4F 76  1510 	.ascii "Game Over"
             65 72
    00000691 00                    1511 	.db 0x00
                                   1512 ;main.c:187: void update_hero_sprite() {
                                   1513 ;	---------------------------------
                                   1514 ; Function update_hero_sprite
                                   1515 ; ---------------------------------
    00000692                       1516 _update_hero_sprite::
                                   1517 ;main.c:188: UINT8 move_x = 0;
                                   1518 ;main.c:189: UINT8 move_y = 0;
    00000692 01 00 00         [12] 1519 	ld	bc, #0x0
                                   1520 ;main.c:191: if (joypad() & J_LEFT) move_x = -8;
    00000695 CDr00r00         [24] 1521 	call	_joypad
    00000698 CB 4F            [ 8] 1522 	bit	1, a
    0000069A 28 02            [12] 1523 	jr	Z, 00102$
    0000069C 06 F8            [ 8] 1524 	ld	b, #0xf8
    0000069E                       1525 00102$:
                                   1526 ;main.c:192: if (joypad() & J_RIGHT) move_x = 8;
    0000069E CDr00r00         [24] 1527 	call	_joypad
    000006A1 0F               [ 4] 1528 	rrca
    000006A2 30 02            [12] 1529 	jr	NC, 00104$
    000006A4 06 08            [ 8] 1530 	ld	b, #0x08
    000006A6                       1531 00104$:
                                   1532 ;main.c:193: if (joypad() & J_UP) move_y = -8;
    000006A6 CDr00r00         [24] 1533 	call	_joypad
    000006A9 CB 57            [ 8] 1534 	bit	2, a
    000006AB 28 02            [12] 1535 	jr	Z, 00106$
    000006AD 0E F8            [ 8] 1536 	ld	c, #0xf8
    000006AF                       1537 00106$:
                                   1538 ;main.c:194: if (joypad() & J_DOWN) move_y = 8;
    000006AF CDr00r00         [24] 1539 	call	_joypad
    000006B2 CB 5F            [ 8] 1540 	bit	3, a
    000006B4 28 02            [12] 1541 	jr	Z, 00108$
    000006B6 0E 08            [ 8] 1542 	ld	c, #0x08
    000006B8                       1543 00108$:
                                   1544 ;main.c:196: hero_x += move_x;
    000006B8 21r36r01         [12] 1545 	ld	hl, #_hero_x
    000006BB 7E               [ 8] 1546 	ld	a, (hl)
    000006BC 80               [ 4] 1547 	add	a, b
    000006BD 77               [ 8] 1548 	ld	(hl), a
                                   1549 ;main.c:197: hero_y += move_y;
    000006BE 21r37r01         [12] 1550 	ld	hl, #_hero_y
    000006C1 7E               [ 8] 1551 	ld	a, (hl)
    000006C2 81               [ 4] 1552 	add	a, c
    000006C3 77               [ 8] 1553 	ld	(hl), a
                                   1554 ;main.c:199: move_sprite(0, hero_x, hero_y);
    000006C4 46               [ 8] 1555 	ld	b, (hl)
    000006C5 21r36r01         [12] 1556 	ld	hl, #_hero_x
    000006C8 4E               [ 8] 1557 	ld	c, (hl)
                                   1558 ;c:\gbdk\include\gb\gb.h:1961: OAM_item_t * itm = &shadow_OAM[nb];
    000006C9 21r00r00         [12] 1559 	ld	hl, #_shadow_OAM
                                   1560 ;c:\gbdk\include\gb\gb.h:1962: itm->y=y, itm->x=x;
    000006CC 78               [ 4] 1561 	ld	a, b
    000006CD 22               [ 8] 1562 	ld	(hl+), a
    000006CE 71               [ 8] 1563 	ld	(hl), c
                                   1564 ;main.c:200: move_sprite(1, hero_x + 8, hero_y);
    000006CF 21r37r01         [12] 1565 	ld	hl, #_hero_y
    000006D2 46               [ 8] 1566 	ld	b, (hl)
    000006D3 FAr36r01         [16] 1567 	ld	a, (#_hero_x)
    000006D6 C6 08            [ 8] 1568 	add	a, #0x08
    000006D8 4F               [ 4] 1569 	ld	c, a
                                   1570 ;c:\gbdk\include\gb\gb.h:1961: OAM_item_t * itm = &shadow_OAM[nb];
    000006D9 21r04r00         [12] 1571 	ld	hl, #(_shadow_OAM + 4)
                                   1572 ;c:\gbdk\include\gb\gb.h:1962: itm->y=y, itm->x=x;
    000006DC 78               [ 4] 1573 	ld	a, b
    000006DD 22               [ 8] 1574 	ld	(hl+), a
    000006DE 71               [ 8] 1575 	ld	(hl), c
                                   1576 ;main.c:201: move_sprite(2, hero_x, hero_y + 8);
    000006DF FAr37r01         [16] 1577 	ld	a, (#_hero_y)
    000006E2 C6 08            [ 8] 1578 	add	a, #0x08
    000006E4 47               [ 4] 1579 	ld	b, a
    000006E5 21r36r01         [12] 1580 	ld	hl, #_hero_x
    000006E8 4E               [ 8] 1581 	ld	c, (hl)
                                   1582 ;c:\gbdk\include\gb\gb.h:1961: OAM_item_t * itm = &shadow_OAM[nb];
    000006E9 21r08r00         [12] 1583 	ld	hl, #(_shadow_OAM + 8)
                                   1584 ;c:\gbdk\include\gb\gb.h:1962: itm->y=y, itm->x=x;
    000006EC 78               [ 4] 1585 	ld	a, b
    000006ED 22               [ 8] 1586 	ld	(hl+), a
    000006EE 71               [ 8] 1587 	ld	(hl), c
                                   1588 ;main.c:202: move_sprite(3, hero_x + 8, hero_y + 8);
    000006EF FAr37r01         [16] 1589 	ld	a, (#_hero_y)
    000006F2 C6 08            [ 8] 1590 	add	a, #0x08
    000006F4 47               [ 4] 1591 	ld	b, a
    000006F5 FAr36r01         [16] 1592 	ld	a, (#_hero_x)
    000006F8 C6 08            [ 8] 1593 	add	a, #0x08
    000006FA 4F               [ 4] 1594 	ld	c, a
                                   1595 ;c:\gbdk\include\gb\gb.h:1961: OAM_item_t * itm = &shadow_OAM[nb];
    000006FB 21r0Cr00         [12] 1596 	ld	hl, #(_shadow_OAM + 12)
                                   1597 ;c:\gbdk\include\gb\gb.h:1962: itm->y=y, itm->x=x;
    000006FE 78               [ 4] 1598 	ld	a, b
    000006FF 22               [ 8] 1599 	ld	(hl+), a
    00000700 71               [ 8] 1600 	ld	(hl), c
                                   1601 ;main.c:204: if (heroSpriteIndex == 0) {
    00000701 FAr38r01         [16] 1602 	ld	a, (#_heroSpriteIndex)
    00000704 B7               [ 4] 1603 	or	a, a
    00000705 20 1A            [12] 1604 	jr	NZ, 00110$
                                   1605 ;c:\gbdk\include\gb\gb.h:1875: shadow_OAM[nb].tile=tile;
    00000707 21r02r00         [12] 1606 	ld	hl, #(_shadow_OAM + 2)
    0000070A 36 00            [12] 1607 	ld	(hl), #0x00
    0000070C 21r06r00         [12] 1608 	ld	hl, #(_shadow_OAM + 6)
    0000070F 36 01            [12] 1609 	ld	(hl), #0x01
    00000711 21r0Ar00         [12] 1610 	ld	hl, #(_shadow_OAM + 10)
    00000714 36 02            [12] 1611 	ld	(hl), #0x02
    00000716 21r0Er00         [12] 1612 	ld	hl, #(_shadow_OAM + 14)
    00000719 36 03            [12] 1613 	ld	(hl), #0x03
                                   1614 ;main.c:209: heroSpriteIndex = 1;
    0000071B 21r38r01         [12] 1615 	ld	hl, #_heroSpriteIndex
    0000071E 36 01            [12] 1616 	ld	(hl), #0x01
    00000720 C9               [16] 1617 	ret
    00000721                       1618 00110$:
                                   1619 ;c:\gbdk\include\gb\gb.h:1875: shadow_OAM[nb].tile=tile;
    00000721 21r02r00         [12] 1620 	ld	hl, #(_shadow_OAM + 2)
    00000724 36 04            [12] 1621 	ld	(hl), #0x04
    00000726 21r06r00         [12] 1622 	ld	hl, #(_shadow_OAM + 6)
    00000729 36 05            [12] 1623 	ld	(hl), #0x05
    0000072B 21r0Ar00         [12] 1624 	ld	hl, #(_shadow_OAM + 10)
    0000072E 36 06            [12] 1625 	ld	(hl), #0x06
    00000730 21r0Er00         [12] 1626 	ld	hl, #(_shadow_OAM + 14)
    00000733 36 07            [12] 1627 	ld	(hl), #0x07
                                   1628 ;main.c:215: heroSpriteIndex = 0;
    00000735 21r38r01         [12] 1629 	ld	hl, #_heroSpriteIndex
    00000738 36 00            [12] 1630 	ld	(hl), #0x00
                                   1631 ;main.c:217: }
    0000073A C9               [16] 1632 	ret
                                   1633 ;main.c:219: void main(void) {
                                   1634 ;	---------------------------------
                                   1635 ; Function main
                                   1636 ; ---------------------------------
    0000073B                       1637 _main::
                                   1638 ;main.c:221: STAT_REG = 0x45;
    0000073B 3E 45            [ 8] 1639 	ld	a, #0x45
    0000073D E0r00            [12] 1640 	ldh	(_STAT_REG + 0), a
                                   1641 ;main.c:222: LYC_REG = 0x08;
    0000073F 3E 08            [ 8] 1642 	ld	a, #0x08
    00000741 E0r00            [12] 1643 	ldh	(_LYC_REG + 0), a
                                   1644 ;c:\gbdk\include\gb\gb.h:799: __asm__("di");
    00000743 F3               [ 4] 1645 	di
                                   1646 ;main.c:224: font_init();
    00000744 CDr00r00         [24] 1647 	call	_font_init
                                   1648 ;main.c:225: min_font = font_load(font_min);
    00000747 11r00r00         [12] 1649 	ld	de, #_font_min
    0000074A D5               [16] 1650 	push	de
    0000074B CDr00r00         [24] 1651 	call	_font_load
    0000074E E1               [12] 1652 	pop	hl
                                   1653 ;main.c:226: font_set(min_font);
    0000074F D5               [16] 1654 	push	de
    00000750 CDr00r00         [24] 1655 	call	_font_set
    00000753 E1               [12] 1656 	pop	hl
                                   1657 ;main.c:228: set_win_tiles(0, 0, 5, 1, windowHeroMetric100);
    00000754 11r00r00         [12] 1658 	ld	de, #_windowHeroMetric100
    00000757 D5               [16] 1659 	push	de
    00000758 21 05 01         [12] 1660 	ld	hl, #0x105
    0000075B E5               [16] 1661 	push	hl
    0000075C AF               [ 4] 1662 	xor	a, a
    0000075D 0F               [ 4] 1663 	rrca
    0000075E F5               [16] 1664 	push	af
    0000075F CDr00r00         [24] 1665 	call	_set_win_tiles
    00000762 E8 06            [16] 1666 	add	sp, #6
                                   1667 ;c:\gbdk\include\gb\gb.h:1727: WX_REG=x, WY_REG=y;
    00000764 3E 07            [ 8] 1668 	ld	a, #0x07
    00000766 E0r00            [12] 1669 	ldh	(_WX_REG + 0), a
    00000768 3E 82            [ 8] 1670 	ld	a, #0x82
    0000076A E0r00            [12] 1671 	ldh	(_WY_REG + 0), a
                                   1672 ;main.c:230: SHOW_WIN;
    0000076C F0r00            [12] 1673 	ldh	a, (_LCDC_REG + 0)
    0000076E F6 20            [ 8] 1674 	or	a, #0x20
    00000770 E0r00            [12] 1675 	ldh	(_LCDC_REG + 0), a
                                   1676 ;main.c:231: DISPLAY_ON;
    00000772 F0r00            [12] 1677 	ldh	a, (_LCDC_REG + 0)
    00000774 F6 80            [ 8] 1678 	or	a, #0x80
    00000776 E0r00            [12] 1679 	ldh	(_LCDC_REG + 0), a
                                   1680 ;main.c:233: add_LCD(interruptLCD);
    00000778 11r00r00         [12] 1681 	ld	de, #_interruptLCD
    0000077B CDr00r00         [24] 1682 	call	_add_LCD
                                   1683 ;c:\gbdk\include\gb\gb.h:783: __asm__("ei");
    0000077E FB               [ 4] 1684 	ei
                                   1685 ;main.c:235: set_interrupts(VBL_IFLAG | LCD_IFLAG);
    0000077F 3E 03            [ 8] 1686 	ld	a, #0x03
    00000781 CDr00r00         [24] 1687 	call	_set_interrupts
                                   1688 ;main.c:237: set_sprite_data(0, 8, hero);
    00000784 11r11r00         [12] 1689 	ld	de, #_hero
    00000787 D5               [16] 1690 	push	de
    00000788 21 00 08         [12] 1691 	ld	hl, #0x800
    0000078B E5               [16] 1692 	push	hl
    0000078C CDr00r00         [24] 1693 	call	_set_sprite_data
    0000078F E8 04            [16] 1694 	add	sp, #4
                                   1695 ;main.c:238: set_sprite_data(8, 8, enemy);
    00000791 11r91r00         [12] 1696 	ld	de, #_enemy
    00000794 D5               [16] 1697 	push	de
    00000795 21 08 08         [12] 1698 	ld	hl, #0x808
    00000798 E5               [16] 1699 	push	hl
    00000799 CDr00r00         [24] 1700 	call	_set_sprite_data
    0000079C E8 04            [16] 1701 	add	sp, #4
                                   1702 ;main.c:239: set_sprite_data(16, 2, bullet);
    0000079E 11r11r01         [12] 1703 	ld	de, #_bullet
    000007A1 D5               [16] 1704 	push	de
    000007A2 3E 02            [ 8] 1705 	ld	a, #0x02
    000007A4 F5               [16] 1706 	push	af
    000007A5 33               [ 8] 1707 	inc	sp
    000007A6 3E 10            [ 8] 1708 	ld	a, #0x10
    000007A8 F5               [16] 1709 	push	af
    000007A9 33               [ 8] 1710 	inc	sp
    000007AA CDr00r00         [24] 1711 	call	_set_sprite_data
    000007AD E8 04            [16] 1712 	add	sp, #4
                                   1713 ;main.c:241: initialize_bullets();
    000007AF CDr0Cr00         [24] 1714 	call	_initialize_bullets
                                   1715 ;c:\gbdk\include\gb\gb.h:1875: shadow_OAM[nb].tile=tile;
    000007B2 21r12r00         [12] 1716 	ld	hl, #(_shadow_OAM + 18)
    000007B5 36 08            [12] 1717 	ld	(hl), #0x08
    000007B7 21r16r00         [12] 1718 	ld	hl, #(_shadow_OAM + 22)
    000007BA 36 09            [12] 1719 	ld	(hl), #0x09
    000007BC 21r1Ar00         [12] 1720 	ld	hl, #(_shadow_OAM + 26)
    000007BF 36 0A            [12] 1721 	ld	(hl), #0x0a
    000007C1 21r1Er00         [12] 1722 	ld	hl, #(_shadow_OAM + 30)
    000007C4 36 0B            [12] 1723 	ld	(hl), #0x0b
                                   1724 ;main.c:247: move_sprite(4, enemy_x, enemy_y);
    000007C6 21r32r01         [12] 1725 	ld	hl, #_enemy_y
    000007C9 4E               [ 8] 1726 	ld	c, (hl)
    000007CA 21r31r01         [12] 1727 	ld	hl, #_enemy_x
    000007CD 46               [ 8] 1728 	ld	b, (hl)
                                   1729 ;c:\gbdk\include\gb\gb.h:1961: OAM_item_t * itm = &shadow_OAM[nb];
    000007CE 21r10r00         [12] 1730 	ld	hl, #(_shadow_OAM + 16)
                                   1731 ;c:\gbdk\include\gb\gb.h:1962: itm->y=y, itm->x=x;
    000007D1 79               [ 4] 1732 	ld	a, c
    000007D2 22               [ 8] 1733 	ld	(hl+), a
    000007D3 70               [ 8] 1734 	ld	(hl), b
                                   1735 ;main.c:248: move_sprite(5, enemy_x + 8, enemy_y);
    000007D4 21r32r01         [12] 1736 	ld	hl, #_enemy_y
    000007D7 4E               [ 8] 1737 	ld	c, (hl)
    000007D8 FAr31r01         [16] 1738 	ld	a, (#_enemy_x)
    000007DB C6 08            [ 8] 1739 	add	a, #0x08
    000007DD 47               [ 4] 1740 	ld	b, a
                                   1741 ;c:\gbdk\include\gb\gb.h:1961: OAM_item_t * itm = &shadow_OAM[nb];
    000007DE 21r14r00         [12] 1742 	ld	hl, #(_shadow_OAM + 20)
                                   1743 ;c:\gbdk\include\gb\gb.h:1962: itm->y=y, itm->x=x;
    000007E1 79               [ 4] 1744 	ld	a, c
    000007E2 22               [ 8] 1745 	ld	(hl+), a
    000007E3 70               [ 8] 1746 	ld	(hl), b
                                   1747 ;main.c:249: move_sprite(6, enemy_x, enemy_y + 8);
    000007E4 FAr32r01         [16] 1748 	ld	a, (#_enemy_y)
    000007E7 C6 08            [ 8] 1749 	add	a, #0x08
    000007E9 4F               [ 4] 1750 	ld	c, a
    000007EA 21r31r01         [12] 1751 	ld	hl, #_enemy_x
    000007ED 46               [ 8] 1752 	ld	b, (hl)
                                   1753 ;c:\gbdk\include\gb\gb.h:1961: OAM_item_t * itm = &shadow_OAM[nb];
    000007EE 21r18r00         [12] 1754 	ld	hl, #(_shadow_OAM + 24)
                                   1755 ;c:\gbdk\include\gb\gb.h:1962: itm->y=y, itm->x=x;
    000007F1 79               [ 4] 1756 	ld	a, c
    000007F2 22               [ 8] 1757 	ld	(hl+), a
    000007F3 70               [ 8] 1758 	ld	(hl), b
                                   1759 ;main.c:250: move_sprite(7, enemy_x + 8, enemy_y + 8);
    000007F4 FAr32r01         [16] 1760 	ld	a, (#_enemy_y)
    000007F7 C6 08            [ 8] 1761 	add	a, #0x08
    000007F9 4F               [ 4] 1762 	ld	c, a
    000007FA FAr31r01         [16] 1763 	ld	a, (#_enemy_x)
    000007FD C6 08            [ 8] 1764 	add	a, #0x08
    000007FF 47               [ 4] 1765 	ld	b, a
                                   1766 ;c:\gbdk\include\gb\gb.h:1961: OAM_item_t * itm = &shadow_OAM[nb];
    00000800 21r1Cr00         [12] 1767 	ld	hl, #(_shadow_OAM + 28)
                                   1768 ;c:\gbdk\include\gb\gb.h:1962: itm->y=y, itm->x=x;
    00000803 79               [ 4] 1769 	ld	a, c
    00000804 22               [ 8] 1770 	ld	(hl+), a
    00000805 70               [ 8] 1771 	ld	(hl), b
                                   1772 ;main.c:252: move_sprite(0, hero_x, hero_y);
    00000806 21r37r01         [12] 1773 	ld	hl, #_hero_y
    00000809 4E               [ 8] 1774 	ld	c, (hl)
    0000080A 21r36r01         [12] 1775 	ld	hl, #_hero_x
    0000080D 46               [ 8] 1776 	ld	b, (hl)
                                   1777 ;c:\gbdk\include\gb\gb.h:1961: OAM_item_t * itm = &shadow_OAM[nb];
    0000080E 21r00r00         [12] 1778 	ld	hl, #_shadow_OAM
                                   1779 ;c:\gbdk\include\gb\gb.h:1962: itm->y=y, itm->x=x;
    00000811 79               [ 4] 1780 	ld	a, c
    00000812 22               [ 8] 1781 	ld	(hl+), a
    00000813 70               [ 8] 1782 	ld	(hl), b
                                   1783 ;main.c:253: move_sprite(1, hero_x + 8, hero_y);
    00000814 21r37r01         [12] 1784 	ld	hl, #_hero_y
    00000817 4E               [ 8] 1785 	ld	c, (hl)
    00000818 FAr36r01         [16] 1786 	ld	a, (#_hero_x)
    0000081B C6 08            [ 8] 1787 	add	a, #0x08
    0000081D 47               [ 4] 1788 	ld	b, a
                                   1789 ;c:\gbdk\include\gb\gb.h:1961: OAM_item_t * itm = &shadow_OAM[nb];
    0000081E 21r04r00         [12] 1790 	ld	hl, #(_shadow_OAM + 4)
                                   1791 ;c:\gbdk\include\gb\gb.h:1962: itm->y=y, itm->x=x;
    00000821 79               [ 4] 1792 	ld	a, c
    00000822 22               [ 8] 1793 	ld	(hl+), a
    00000823 70               [ 8] 1794 	ld	(hl), b
                                   1795 ;main.c:254: move_sprite(2, hero_x, hero_y + 8);
    00000824 FAr37r01         [16] 1796 	ld	a, (#_hero_y)
    00000827 C6 08            [ 8] 1797 	add	a, #0x08
    00000829 4F               [ 4] 1798 	ld	c, a
    0000082A 21r36r01         [12] 1799 	ld	hl, #_hero_x
    0000082D 46               [ 8] 1800 	ld	b, (hl)
                                   1801 ;c:\gbdk\include\gb\gb.h:1961: OAM_item_t * itm = &shadow_OAM[nb];
    0000082E 21r08r00         [12] 1802 	ld	hl, #(_shadow_OAM + 8)
                                   1803 ;c:\gbdk\include\gb\gb.h:1962: itm->y=y, itm->x=x;
    00000831 79               [ 4] 1804 	ld	a, c
    00000832 22               [ 8] 1805 	ld	(hl+), a
    00000833 70               [ 8] 1806 	ld	(hl), b
                                   1807 ;main.c:255: move_sprite(3, hero_x + 8, hero_y + 8);
    00000834 FAr37r01         [16] 1808 	ld	a, (#_hero_y)
    00000837 C6 08            [ 8] 1809 	add	a, #0x08
    00000839 4F               [ 4] 1810 	ld	c, a
    0000083A FAr36r01         [16] 1811 	ld	a, (#_hero_x)
    0000083D C6 08            [ 8] 1812 	add	a, #0x08
    0000083F 47               [ 4] 1813 	ld	b, a
                                   1814 ;c:\gbdk\include\gb\gb.h:1961: OAM_item_t * itm = &shadow_OAM[nb];
    00000840 21r0Cr00         [12] 1815 	ld	hl, #(_shadow_OAM + 12)
                                   1816 ;c:\gbdk\include\gb\gb.h:1962: itm->y=y, itm->x=x;
    00000843 79               [ 4] 1817 	ld	a, c
    00000844 22               [ 8] 1818 	ld	(hl+), a
    00000845 70               [ 8] 1819 	ld	(hl), b
                                   1820 ;main.c:257: SHOW_SPRITES;
    00000846 F0r00            [12] 1821 	ldh	a, (_LCDC_REG + 0)
    00000848 F6 02            [ 8] 1822 	or	a, #0x02
    0000084A E0r00            [12] 1823 	ldh	(_LCDC_REG + 0), a
                                   1824 ;main.c:259: while (1) {
    0000084C                       1825 00104$:
                                   1826 ;main.c:260: update_enemy_sprite();
    0000084C CDr53r04         [24] 1827 	call	_update_enemy_sprite
                                   1828 ;main.c:261: update_hero_sprite();
    0000084F CDr92r06         [24] 1829 	call	_update_hero_sprite
                                   1830 ;main.c:262: if (joypad() & J_A) fire_bullets();
    00000852 CDr00r00         [24] 1831 	call	_joypad
    00000855 CB 67            [ 8] 1832 	bit	4, a
    00000857 28 03            [12] 1833 	jr	Z, 00102$
    00000859 CDr4Br00         [24] 1834 	call	_fire_bullets
    0000085C                       1835 00102$:
                                   1836 ;main.c:263: update_bullets();
    0000085C CDr5Br02         [24] 1837 	call	_update_bullets
                                   1838 ;main.c:264: handle_hero_collision();
    0000085F CDrAFr05         [24] 1839 	call	_handle_hero_collision
                                   1840 ;main.c:265: delay(100);
    00000862 11 64 00         [12] 1841 	ld	de, #0x0064
    00000865 CDr00r00         [24] 1842 	call	_delay
                                   1843 ;main.c:267: }
    00000868 18 E2            [12] 1844 	jr	00104$
                                   1845 	.area _CODE
                                   1846 	.area _INITIALIZER
    00000000                       1847 __xinit__windowHeroMetric100:
    00000000 1A                    1848 	.db #0x1a	; 26
    00000001 20                    1849 	.db #0x20	; 32
    00000002 02                    1850 	.db #0x02	; 2
    00000003 01                    1851 	.db #0x01	; 1
    00000004 01                    1852 	.db #0x01	; 1
    00000005                       1853 __xinit__windowHeroMetric75:
    00000005 1A                    1854 	.db #0x1a	; 26
    00000006 20                    1855 	.db #0x20	; 32
    00000007 08                    1856 	.db #0x08	; 8
    00000008 06                    1857 	.db #0x06	; 6
    00000009                       1858 __xinit__windowHeroMetric50:
    00000009 1A                    1859 	.db #0x1a	; 26
    0000000A 20                    1860 	.db #0x20	; 32
    0000000B 06                    1861 	.db #0x06	; 6
    0000000C 01                    1862 	.db #0x01	; 1
    0000000D                       1863 __xinit__windowHeroMetric25:
    0000000D 1A                    1864 	.db #0x1a	; 26
    0000000E 20                    1865 	.db #0x20	; 32
    0000000F 03                    1866 	.db #0x03	; 3
    00000010 06                    1867 	.db #0x06	; 6
    00000011                       1868 __xinit__hero:
    00000011 08                    1869 	.db #0x08	; 8
    00000012 08                    1870 	.db #0x08	; 8
    00000013 0C                    1871 	.db #0x0c	; 12
    00000014 0C                    1872 	.db #0x0c	; 12
    00000015 0B                    1873 	.db #0x0b	; 11
    00000016 0F                    1874 	.db #0x0f	; 15
    00000017 08                    1875 	.db #0x08	; 8
    00000018 0F                    1876 	.db #0x0f	; 15
    00000019 16                    1877 	.db #0x16	; 22
    0000001A 1F                    1878 	.db #0x1f	; 31
    0000001B 14                    1879 	.db #0x14	; 20
    0000001C 1F                    1880 	.db #0x1f	; 31
    0000001D 16                    1881 	.db #0x16	; 22
    0000001E 1F                    1882 	.db #0x1f	; 31
    0000001F 10                    1883 	.db #0x10	; 16
    00000020 10                    1884 	.db #0x10	; 16
    00000021 08                    1885 	.db #0x08	; 8
    00000022 08                    1886 	.db #0x08	; 8
    00000023 18                    1887 	.db #0x18	; 24
    00000024 18                    1888 	.db #0x18	; 24
    00000025 E8                    1889 	.db #0xe8	; 232
    00000026 F8                    1890 	.db #0xf8	; 248
    00000027 08                    1891 	.db #0x08	; 8
    00000028 F8                    1892 	.db #0xf8	; 248
    00000029 34                    1893 	.db #0x34	; 52	'4'
    0000002A FC                    1894 	.db #0xfc	; 252
    0000002B 24                    1895 	.db #0x24	; 36
    0000002C FC                    1896 	.db #0xfc	; 252
    0000002D B4                    1897 	.db #0xb4	; 180
    0000002E FC                    1898 	.db #0xfc	; 252
    0000002F 04                    1899 	.db #0x04	; 4
    00000030 04                    1900 	.db #0x04	; 4
    00000031 1E                    1901 	.db #0x1e	; 30
    00000032 1E                    1902 	.db #0x1e	; 30
    00000033 D7                    1903 	.db #0xd7	; 215
    00000034 D7                    1904 	.db #0xd7	; 215
    00000035 AE                    1905 	.db #0xae	; 174
    00000036 BE                    1906 	.db #0xbe	; 190
    00000037 92                    1907 	.db #0x92	; 146
    00000038 BE                    1908 	.db #0xbe	; 190
    00000039 92                    1909 	.db #0x92	; 146
    0000003A BE                    1910 	.db #0xbe	; 190
    0000003B 4F                    1911 	.db #0x4f	; 79	'O'
    0000003C 7F                    1912 	.db #0x7f	; 127
    0000003D 29                    1913 	.db #0x29	; 41
    0000003E 3F                    1914 	.db #0x3f	; 63
    0000003F 1F                    1915 	.db #0x1f	; 31
    00000040 1F                    1916 	.db #0x1f	; 31
    00000041 BC                    1917 	.db #0xbc	; 188
    00000042 BC                    1918 	.db #0xbc	; 188
    00000043 70                    1919 	.db #0x70	; 112	'p'
    00000044 70                    1920 	.db #0x70	; 112	'p'
    00000045 38                    1921 	.db #0x38	; 56	'8'
    00000046 38                    1922 	.db #0x38	; 56	'8'
    00000047 24                    1923 	.db #0x24	; 36
    00000048 3C                    1924 	.db #0x3c	; 60
    00000049 24                    1925 	.db #0x24	; 36
    0000004A 3C                    1926 	.db #0x3c	; 60
    0000004B 78                    1927 	.db #0x78	; 120	'x'
    0000004C 78                    1928 	.db #0x78	; 120	'x'
    0000004D C8                    1929 	.db #0xc8	; 200
    0000004E F8                    1930 	.db #0xf8	; 248
    0000004F F8                    1931 	.db #0xf8	; 248
    00000050 F8                    1932 	.db #0xf8	; 248
    00000051                       1933 __xinit__hero2:
    00000051 08                    1934 	.db #0x08	; 8
    00000052 08                    1935 	.db #0x08	; 8
    00000053 0C                    1936 	.db #0x0c	; 12
    00000054 0C                    1937 	.db #0x0c	; 12
    00000055 0B                    1938 	.db #0x0b	; 11
    00000056 0F                    1939 	.db #0x0f	; 15
    00000057 08                    1940 	.db #0x08	; 8
    00000058 0F                    1941 	.db #0x0f	; 15
    00000059 16                    1942 	.db #0x16	; 22
    0000005A 1F                    1943 	.db #0x1f	; 31
    0000005B 14                    1944 	.db #0x14	; 20
    0000005C 1F                    1945 	.db #0x1f	; 31
    0000005D 16                    1946 	.db #0x16	; 22
    0000005E 1F                    1947 	.db #0x1f	; 31
    0000005F 10                    1948 	.db #0x10	; 16
    00000060 10                    1949 	.db #0x10	; 16
    00000061 08                    1950 	.db #0x08	; 8
    00000062 08                    1951 	.db #0x08	; 8
    00000063 18                    1952 	.db #0x18	; 24
    00000064 18                    1953 	.db #0x18	; 24
    00000065 E8                    1954 	.db #0xe8	; 232
    00000066 F8                    1955 	.db #0xf8	; 248
    00000067 08                    1956 	.db #0x08	; 8
    00000068 F8                    1957 	.db #0xf8	; 248
    00000069 34                    1958 	.db #0x34	; 52	'4'
    0000006A FC                    1959 	.db #0xfc	; 252
    0000006B 24                    1960 	.db #0x24	; 36
    0000006C FC                    1961 	.db #0xfc	; 252
    0000006D B4                    1962 	.db #0xb4	; 180
    0000006E FC                    1963 	.db #0xfc	; 252
    0000006F 04                    1964 	.db #0x04	; 4
    00000070 04                    1965 	.db #0x04	; 4
    00000071 1E                    1966 	.db #0x1e	; 30
    00000072 1E                    1967 	.db #0x1e	; 30
    00000073 2F                    1968 	.db #0x2f	; 47
    00000074 2F                    1969 	.db #0x2f	; 47
    00000075 4E                    1970 	.db #0x4e	; 78	'N'
    00000076 4E                    1971 	.db #0x4e	; 78	'N'
    00000077 52                    1972 	.db #0x52	; 82	'R'
    00000078 7E                    1973 	.db #0x7e	; 126
    00000079 52                    1974 	.db #0x52	; 82	'R'
    0000007A 7E                    1975 	.db #0x7e	; 126
    0000007B 4F                    1976 	.db #0x4f	; 79	'O'
    0000007C 7F                    1977 	.db #0x7f	; 127
    0000007D 29                    1978 	.db #0x29	; 41
    0000007E 3F                    1979 	.db #0x3f	; 63
    0000007F 1F                    1980 	.db #0x1f	; 31
    00000080 1F                    1981 	.db #0x1f	; 31
    00000081 BC                    1982 	.db #0xbc	; 188
    00000082 BC                    1983 	.db #0xbc	; 188
    00000083 70                    1984 	.db #0x70	; 112	'p'
    00000084 70                    1985 	.db #0x70	; 112	'p'
    00000085 38                    1986 	.db #0x38	; 56	'8'
    00000086 38                    1987 	.db #0x38	; 56	'8'
    00000087 24                    1988 	.db #0x24	; 36
    00000088 3C                    1989 	.db #0x3c	; 60
    00000089 24                    1990 	.db #0x24	; 36
    0000008A 3C                    1991 	.db #0x3c	; 60
    0000008B 78                    1992 	.db #0x78	; 120	'x'
    0000008C 78                    1993 	.db #0x78	; 120	'x'
    0000008D C8                    1994 	.db #0xc8	; 200
    0000008E F8                    1995 	.db #0xf8	; 248
    0000008F F8                    1996 	.db #0xf8	; 248
    00000090 F8                    1997 	.db #0xf8	; 248
    00000091                       1998 __xinit__enemy:
    00000091 1E                    1999 	.db #0x1e	; 30
    00000092 1E                    2000 	.db #0x1e	; 30
    00000093 7F                    2001 	.db #0x7f	; 127
    00000094 7F                    2002 	.db #0x7f	; 127
    00000095 FF                    2003 	.db #0xff	; 255
    00000096 FF                    2004 	.db #0xff	; 255
    00000097 CF                    2005 	.db #0xcf	; 207
    00000098 FF                    2006 	.db #0xff	; 255
    00000099 CC                    2007 	.db #0xcc	; 204
    0000009A FF                    2008 	.db #0xff	; 255
    0000009B FF                    2009 	.db #0xff	; 255
    0000009C FF                    2010 	.db #0xff	; 255
    0000009D F3                    2011 	.db #0xf3	; 243
    0000009E FF                    2012 	.db #0xff	; 255
    0000009F F3                    2013 	.db #0xf3	; 243
    000000A0 FF                    2014 	.db #0xff	; 255
    000000A1 00                    2015 	.db #0x00	; 0
    000000A2 00                    2016 	.db #0x00	; 0
    000000A3 80                    2017 	.db #0x80	; 128
    000000A4 80                    2018 	.db #0x80	; 128
    000000A5 C0                    2019 	.db #0xc0	; 192
    000000A6 C0                    2020 	.db #0xc0	; 192
    000000A7 C0                    2021 	.db #0xc0	; 192
    000000A8 C0                    2022 	.db #0xc0	; 192
    000000A9 C0                    2023 	.db #0xc0	; 192
    000000AA C0                    2024 	.db #0xc0	; 192
    000000AB C0                    2025 	.db #0xc0	; 192
    000000AC C0                    2026 	.db #0xc0	; 192
    000000AD C0                    2027 	.db #0xc0	; 192
    000000AE C0                    2028 	.db #0xc0	; 192
    000000AF C0                    2029 	.db #0xc0	; 192
    000000B0 C0                    2030 	.db #0xc0	; 192
    000000B1 7F                    2031 	.db #0x7f	; 127
    000000B2 7F                    2032 	.db #0x7f	; 127
    000000B3 7F                    2033 	.db #0x7f	; 127
    000000B4 7F                    2034 	.db #0x7f	; 127
    000000B5 9F                    2035 	.db #0x9f	; 159
    000000B6 9F                    2036 	.db #0x9f	; 159
    000000B7 9E                    2037 	.db #0x9e	; 158
    000000B8 9E                    2038 	.db #0x9e	; 158
    000000B9 7E                    2039 	.db #0x7e	; 126
    000000BA 7E                    2040 	.db #0x7e	; 126
    000000BB 1F                    2041 	.db #0x1f	; 31
    000000BC 1F                    2042 	.db #0x1f	; 31
    000000BD 12                    2043 	.db #0x12	; 18
    000000BE 12                    2044 	.db #0x12	; 18
    000000BF 12                    2045 	.db #0x12	; 18
    000000C0 12                    2046 	.db #0x12	; 18
    000000C1 80                    2047 	.db #0x80	; 128
    000000C2 80                    2048 	.db #0x80	; 128
    000000C3 00                    2049 	.db #0x00	; 0
    000000C4 00                    2050 	.db #0x00	; 0
    000000C5 C0                    2051 	.db #0xc0	; 192
    000000C6 C0                    2052 	.db #0xc0	; 192
    000000C7 40                    2053 	.db #0x40	; 64
    000000C8 40                    2054 	.db #0x40	; 64
    000000C9 40                    2055 	.db #0x40	; 64
    000000CA 40                    2056 	.db #0x40	; 64
    000000CB 80                    2057 	.db #0x80	; 128
    000000CC 80                    2058 	.db #0x80	; 128
    000000CD 00                    2059 	.db #0x00	; 0
    000000CE 00                    2060 	.db #0x00	; 0
    000000CF 00                    2061 	.db #0x00	; 0
    000000D0 00                    2062 	.db #0x00	; 0
    000000D1                       2063 __xinit__enemy2:
    000000D1 1E                    2064 	.db #0x1e	; 30
    000000D2 1E                    2065 	.db #0x1e	; 30
    000000D3 7F                    2066 	.db #0x7f	; 127
    000000D4 7F                    2067 	.db #0x7f	; 127
    000000D5 C9                    2068 	.db #0xc9	; 201
    000000D6 C9                    2069 	.db #0xc9	; 201
    000000D7 88                    2070 	.db #0x88	; 136
    000000D8 88                    2071 	.db #0x88	; 136
    000000D9 C8                    2072 	.db #0xc8	; 200
    000000DA C8                    2073 	.db #0xc8	; 200
    000000DB FF                    2074 	.db #0xff	; 255
    000000DC FF                    2075 	.db #0xff	; 255
    000000DD C0                    2076 	.db #0xc0	; 192
    000000DE C0                    2077 	.db #0xc0	; 192
    000000DF E1                    2078 	.db #0xe1	; 225
    000000E0 E1                    2079 	.db #0xe1	; 225
    000000E1 00                    2080 	.db #0x00	; 0
    000000E2 00                    2081 	.db #0x00	; 0
    000000E3 80                    2082 	.db #0x80	; 128
    000000E4 80                    2083 	.db #0x80	; 128
    000000E5 C0                    2084 	.db #0xc0	; 192
    000000E6 C0                    2085 	.db #0xc0	; 192
    000000E7 C0                    2086 	.db #0xc0	; 192
    000000E8 C0                    2087 	.db #0xc0	; 192
    000000E9 C0                    2088 	.db #0xc0	; 192
    000000EA C0                    2089 	.db #0xc0	; 192
    000000EB C0                    2090 	.db #0xc0	; 192
    000000EC C0                    2091 	.db #0xc0	; 192
    000000ED C0                    2092 	.db #0xc0	; 192
    000000EE C0                    2093 	.db #0xc0	; 192
    000000EF C0                    2094 	.db #0xc0	; 192
    000000F0 C0                    2095 	.db #0xc0	; 192
    000000F1 7F                    2096 	.db #0x7f	; 127
    000000F2 7F                    2097 	.db #0x7f	; 127
    000000F3 7F                    2098 	.db #0x7f	; 127
    000000F4 7F                    2099 	.db #0x7f	; 127
    000000F5 9F                    2100 	.db #0x9f	; 159
    000000F6 9F                    2101 	.db #0x9f	; 159
    000000F7 9E                    2102 	.db #0x9e	; 158
    000000F8 9E                    2103 	.db #0x9e	; 158
    000000F9 7E                    2104 	.db #0x7e	; 126
    000000FA 7E                    2105 	.db #0x7e	; 126
    000000FB 1F                    2106 	.db #0x1f	; 31
    000000FC 1F                    2107 	.db #0x1f	; 31
    000000FD 12                    2108 	.db #0x12	; 18
    000000FE 12                    2109 	.db #0x12	; 18
    000000FF 12                    2110 	.db #0x12	; 18
    00000100 12                    2111 	.db #0x12	; 18
    00000101 80                    2112 	.db #0x80	; 128
    00000102 80                    2113 	.db #0x80	; 128
    00000103 00                    2114 	.db #0x00	; 0
    00000104 00                    2115 	.db #0x00	; 0
    00000105 C0                    2116 	.db #0xc0	; 192
    00000106 C0                    2117 	.db #0xc0	; 192
    00000107 40                    2118 	.db #0x40	; 64
    00000108 40                    2119 	.db #0x40	; 64
    00000109 40                    2120 	.db #0x40	; 64
    0000010A 40                    2121 	.db #0x40	; 64
    0000010B 80                    2122 	.db #0x80	; 128
    0000010C 80                    2123 	.db #0x80	; 128
    0000010D 00                    2124 	.db #0x00	; 0
    0000010E 00                    2125 	.db #0x00	; 0
    0000010F 00                    2126 	.db #0x00	; 0
    00000110 00                    2127 	.db #0x00	; 0
    00000111                       2128 __xinit__bullet:
    00000111 00                    2129 	.db #0x00	; 0
    00000112 00                    2130 	.db #0x00	; 0
    00000113 00                    2131 	.db #0x00	; 0
    00000114 00                    2132 	.db #0x00	; 0
    00000115 00                    2133 	.db #0x00	; 0
    00000116 00                    2134 	.db #0x00	; 0
    00000117 18                    2135 	.db #0x18	; 24
    00000118 18                    2136 	.db #0x18	; 24
    00000119 10                    2137 	.db #0x10	; 16
    0000011A 10                    2138 	.db #0x10	; 16
    0000011B 00                    2139 	.db #0x00	; 0
    0000011C 00                    2140 	.db #0x00	; 0
    0000011D 00                    2141 	.db #0x00	; 0
    0000011E 00                    2142 	.db #0x00	; 0
    0000011F 00                    2143 	.db #0x00	; 0
    00000120 00                    2144 	.db #0x00	; 0
    00000121                       2145 __xinit__bullet2:
    00000121 00                    2146 	.db #0x00	; 0
    00000122 00                    2147 	.db #0x00	; 0
    00000123 00                    2148 	.db #0x00	; 0
    00000124 00                    2149 	.db #0x00	; 0
    00000125 00                    2150 	.db #0x00	; 0
    00000126 00                    2151 	.db #0x00	; 0
    00000127 18                    2152 	.db #0x18	; 24
    00000128 18                    2153 	.db #0x18	; 24
    00000129 08                    2154 	.db #0x08	; 8
    0000012A 08                    2155 	.db #0x08	; 8
    0000012B 00                    2156 	.db #0x00	; 0
    0000012C 00                    2157 	.db #0x00	; 0
    0000012D 00                    2158 	.db #0x00	; 0
    0000012E 00                    2159 	.db #0x00	; 0
    0000012F 00                    2160 	.db #0x00	; 0
    00000130 00                    2161 	.db #0x00	; 0
    00000131                       2162 __xinit__enemy_x:
    00000131 78                    2163 	.db #0x78	; 120	'x'
    00000132                       2164 __xinit__enemy_y:
    00000132 4E                    2165 	.db #0x4e	; 78	'N'
    00000133                       2166 __xinit__enemySpriteIndex:
    00000133 00                    2167 	.db #0x00	; 0
    00000134                       2168 __xinit__enemySpeed:
    00000134 01                    2169 	.db #0x01	; 1
    00000135                       2170 __xinit__enemyAnimationCounter:
    00000135 00                    2171 	.db #0x00	; 0
    00000136                       2172 __xinit__hero_x:
    00000136 0A                    2173 	.db #0x0a	; 10
    00000137                       2174 __xinit__hero_y:
    00000137 0A                    2175 	.db #0x0a	; 10
    00000138                       2176 __xinit__heroSpriteIndex:
    00000138 00                    2177 	.db #0x00	; 0
    00000139                       2178 __xinit__heroHealth:
    00000139 64                    2179 	.db #0x64	; 100	'd'
    0000013A                       2180 __xinit__display_win:
    0000013A 01                    2181 	.db #0x01	; 1
                                   2182 	.area _CABS (ABS)
